###############################################################################
#                                                                             #
# IAR C/C++ Compiler V8.10.3.10338/W32 for 8051         08/Jun/2016  19:31:43 #
# Copyright 2004-2011 IAR Systems AB.                                         #
#                                                                             #
#    Core               =  plain                                              #
#    Code model         =  banked                                             #
#    Data model         =  large                                              #
#    Calling convention =  xdata reentrant                                    #
#    Constant location  =  data_rom                                           #
#    Dptr setup         =  1,16                                               #
#    Source file        =  E:\ZigBeeStudy\6.ÎÂ¶È´«¸ÐÆ÷DS18B20\ZStack-CC2530-2 #
#                          .3.0-1.4.0\Projects\zstack\Samples\SampleApp\Sourc #
#                          e\SampleApp.c                                      #
#    Command line       =  -f E:\ZigBeeStudy\6.ÎÂ¶È´«¸ÐÆ÷DS18B20\ZStack-CC253 #
#                          0-2.3.0-1.4.0\Projects\zstack\Samples\SampleApp\CC #
#                          2530DB\..\..\..\Tools\CC2530DB\f8wRouter.cfg       #
#                          (-DCPU32MHZ -DROOT=__near_func                     #
#                          -DMAC_CFG_APP_PENDING_QUEUE=TRUE -DRTR_NWK         #
#                          -DBLINK_LEDS) -f E:\ZigBeeStudy\6.ÎÂ¶È´«¸ÐÆ÷DS18B2 #
#                          0\ZStack-CC2530-2.3.0-1.4.0\Projects\zstack\Sample #
#                          s\SampleApp\CC2530DB\..\..\..\Tools\CC2530DB\f8wCo #
#                          nfig.cfg (-DSECURE=0 -DZG_SECURE_DYNAMIC=0         #
#                          -DREFLECTOR -DDEFAULT_CHANLIST=0x00000800          #
#                          -DZDAPP_CONFIG_PAN_ID=0xFFF1                       #
#                          -DNWK_START_DELAY=100 -DEXTENDED_JOINING_RANDOM_MA #
#                          SK=0x007F -DBEACON_REQUEST_DELAY=100               #
#                          -DBEACON_REQ_DELAY_MASK=0x00FF                     #
#                          -DROUTE_EXPIRY_TIME=30 -DAPSC_ACK_WAIT_DURATION_PO #
#                          LLED=3000 -DNWK_INDIRECT_MSG_TIMEOUT=7             #
#                          -DMAX_RREQ_ENTRIES=8 -DAPSC_MAX_FRAME_RETRIES=3    #
#                          -DNWK_MAX_DATA_RETRIES=2                           #
#                          -DMAX_POLL_FAILURE_RETRIES=2 -DMAX_BCAST=9         #
#                          -DAPS_MAX_GROUPS=16 -DMAX_RTG_ENTRIES=40           #
#                          -DNWK_MAX_BINDING_ENTRIES=4                        #
#                          -DMAX_BINDING_CLUSTER_IDS=4 "-DDEFAULT_KEY={0x01,  #
#                          0x03, 0x05, 0x07, 0x09, 0x0B, 0x0D, 0x0F, 0x00,    #
#                          0x02, 0x04, 0x06, 0x08, 0x0A, 0x0C, 0x0D}"         #
#                          -DMAC_MAX_FRAME_SIZE=116 "-DCONST=const __code"    #
#                          -DGENERIC=__generic -DRFD_RCVC_ALWAYS_ON=FALSE     #
#                          -DPOLL_RATE=1000 -DQUEUED_POLL_RATE=100            #
#                          -DRESPONSE_POLL_RATE=100) -DREJOIN_POLL_RATE=440   #
#                          E:\ZigBeeStudy\6.ÎÂ¶È´«¸ÐÆ÷DS18B20\ZStack-CC2530-2 #
#                          .3.0-1.4.0\Projects\zstack\Samples\SampleApp\Sourc #
#                          e\SampleApp.c -D ZIGBEEPRO -D ZTOOL_P1 -D MT_TASK  #
#                          -D MT_SYS_FUNC -D MT_ZDO_FUNC -D                   #
#                          LCD_SUPPORTED=DEBUG -lC E:\ZigBeeStudy\6.ÎÂ¶È´«¸ÐÆ #
#                          ÷DS18B20\ZStack-CC2530-2.3.0-1.4.0\Projects\zstack #
#                          \Samples\SampleApp\CC2530DB\RouterEB-Pro\List\     #
#                          -lA E:\ZigBeeStudy\6.ÎÂ¶È´«¸ÐÆ÷DS18B20\ZStack-CC25 #
#                          30-2.3.0-1.4.0\Projects\zstack\Samples\SampleApp\C #
#                          C2530DB\RouterEB-Pro\List\ --diag_suppress         #
#                          Pe001,Pa010 -o E:\ZigBeeStudy\6.ÎÂ¶È´«¸ÐÆ÷DS18B20\ #
#                          ZStack-CC2530-2.3.0-1.4.0\Projects\zstack\Samples\ #
#                          SampleApp\CC2530DB\RouterEB-Pro\Obj\ -e --debug    #
#                          --core=plain --dptr=16,1 --data_model=large        #
#                          --code_model=banked --calling_convention=xdata_ree #
#                          ntrant --place_constants=data_rom                  #
#                          --nr_virtual_regs 16 -I E:\ZigBeeStudy\6.ÎÂ¶È´«¸ÐÆ #
#                          ÷DS18B20\ZStack-CC2530-2.3.0-1.4.0\Projects\zstack #
#                          \Samples\SampleApp\CC2530DB\ -I                    #
#                          E:\ZigBeeStudy\6.ÎÂ¶È´«¸ÐÆ÷DS18B20\ZStack-CC2530-2 #
#                          .3.0-1.4.0\Projects\zstack\Samples\SampleApp\CC253 #
#                          0DB\..\SOURCE\ -I E:\ZigBeeStudy\6.ÎÂ¶È´«¸ÐÆ÷DS18B #
#                          20\ZStack-CC2530-2.3.0-1.4.0\Projects\zstack\Sampl #
#                          es\SampleApp\CC2530DB\..\..\..\ZMAIN\TI2530DB\ -I  #
#                          E:\ZigBeeStudy\6.ÎÂ¶È´«¸ÐÆ÷DS18B20\ZStack-CC2530-2 #
#                          .3.0-1.4.0\Projects\zstack\Samples\SampleApp\CC253 #
#                          0DB\..\..\..\..\..\COMPONENTS\MT\ -I               #
#                          E:\ZigBeeStudy\6.ÎÂ¶È´«¸ÐÆ÷DS18B20\ZStack-CC2530-2 #
#                          .3.0-1.4.0\Projects\zstack\Samples\SampleApp\CC253 #
#                          0DB\..\..\..\..\..\COMPONENTS\HAL\INCLUDE\ -I      #
#                          E:\ZigBeeStudy\6.ÎÂ¶È´«¸ÐÆ÷DS18B20\ZStack-CC2530-2 #
#                          .3.0-1.4.0\Projects\zstack\Samples\SampleApp\CC253 #
#                          0DB\..\..\..\..\..\COMPONENTS\HAL\TARGET\CC2530EB\ #
#                           -I E:\ZigBeeStudy\6.ÎÂ¶È´«¸ÐÆ÷DS18B20\ZStack-CC25 #
#                          30-2.3.0-1.4.0\Projects\zstack\Samples\SampleApp\C #
#                          C2530DB\..\..\..\..\..\COMPONENTS\OSAL\MCU\CCSOC\  #
#                          -I E:\ZigBeeStudy\6.ÎÂ¶È´«¸ÐÆ÷DS18B20\ZStack-CC253 #
#                          0-2.3.0-1.4.0\Projects\zstack\Samples\SampleApp\CC #
#                          2530DB\..\..\..\..\..\COMPONENTS\OSAL\INCLUDE\ -I  #
#                          E:\ZigBeeStudy\6.ÎÂ¶È´«¸ÐÆ÷DS18B20\ZStack-CC2530-2 #
#                          .3.0-1.4.0\Projects\zstack\Samples\SampleApp\CC253 #
#                          0DB\..\..\..\..\..\COMPONENTS\STACK\AF\ -I         #
#                          E:\ZigBeeStudy\6.ÎÂ¶È´«¸ÐÆ÷DS18B20\ZStack-CC2530-2 #
#                          .3.0-1.4.0\Projects\zstack\Samples\SampleApp\CC253 #
#                          0DB\..\..\..\..\..\COMPONENTS\STACK\NWK\ -I        #
#                          E:\ZigBeeStudy\6.ÎÂ¶È´«¸ÐÆ÷DS18B20\ZStack-CC2530-2 #
#                          .3.0-1.4.0\Projects\zstack\Samples\SampleApp\CC253 #
#                          0DB\..\..\..\..\..\COMPONENTS\STACK\SEC\ -I        #
#                          E:\ZigBeeStudy\6.ÎÂ¶È´«¸ÐÆ÷DS18B20\ZStack-CC2530-2 #
#                          .3.0-1.4.0\Projects\zstack\Samples\SampleApp\CC253 #
#                          0DB\..\..\..\..\..\COMPONENTS\STACK\SAPI\ -I       #
#                          E:\ZigBeeStudy\6.ÎÂ¶È´«¸ÐÆ÷DS18B20\ZStack-CC2530-2 #
#                          .3.0-1.4.0\Projects\zstack\Samples\SampleApp\CC253 #
#                          0DB\..\..\..\..\..\COMPONENTS\STACK\SYS\ -I        #
#                          E:\ZigBeeStudy\6.ÎÂ¶È´«¸ÐÆ÷DS18B20\ZStack-CC2530-2 #
#                          .3.0-1.4.0\Projects\zstack\Samples\SampleApp\CC253 #
#                          0DB\..\..\..\..\..\COMPONENTS\STACK\ZDO\ -I        #
#                          E:\ZigBeeStudy\6.ÎÂ¶È´«¸ÐÆ÷DS18B20\ZStack-CC2530-2 #
#                          .3.0-1.4.0\Projects\zstack\Samples\SampleApp\CC253 #
#                          0DB\..\..\..\..\..\COMPONENTS\ZMAC\F8W\ -I         #
#                          E:\ZigBeeStudy\6.ÎÂ¶È´«¸ÐÆ÷DS18B20\ZStack-CC2530-2 #
#                          .3.0-1.4.0\Projects\zstack\Samples\SampleApp\CC253 #
#                          0DB\..\..\..\..\..\COMPONENTS\ZMAC\ -I             #
#                          E:\ZigBeeStudy\6.ÎÂ¶È´«¸ÐÆ÷DS18B20\ZStack-CC2530-2 #
#                          .3.0-1.4.0\Projects\zstack\Samples\SampleApp\CC253 #
#                          0DB\..\..\..\..\..\COMPONENTS\SERVICES\SADDR\ -I   #
#                          E:\ZigBeeStudy\6.ÎÂ¶È´«¸ÐÆ÷DS18B20\ZStack-CC2530-2 #
#                          .3.0-1.4.0\Projects\zstack\Samples\SampleApp\CC253 #
#                          0DB\..\..\..\..\..\COMPONENTS\SERVICES\SDATA\ -I   #
#                          E:\ZigBeeStudy\6.ÎÂ¶È´«¸ÐÆ÷DS18B20\ZStack-CC2530-2 #
#                          .3.0-1.4.0\Projects\zstack\Samples\SampleApp\CC253 #
#                          0DB\..\..\..\..\..\COMPONENTS\MAC\INCLUDE\ -I      #
#                          E:\ZigBeeStudy\6.ÎÂ¶È´«¸ÐÆ÷DS18B20\ZStack-CC2530-2 #
#                          .3.0-1.4.0\Projects\zstack\Samples\SampleApp\CC253 #
#                          0DB\..\..\..\..\..\COMPONENTS\MAC\HIGH_LEVEL\ -I   #
#                          E:\ZigBeeStudy\6.ÎÂ¶È´«¸ÐÆ÷DS18B20\ZStack-CC2530-2 #
#                          .3.0-1.4.0\Projects\zstack\Samples\SampleApp\CC253 #
#                          0DB\..\..\..\..\..\COMPONENTS\MAC\LOW_LEVEL\srf04\ #
#                           -I E:\ZigBeeStudy\6.ÎÂ¶È´«¸ÐÆ÷DS18B20\ZStack-CC25 #
#                          30-2.3.0-1.4.0\Projects\zstack\Samples\SampleApp\C #
#                          C2530DB\..\..\..\..\..\COMPONENTS\MAC\LOW_LEVEL\sr #
#                          f04\SINGLE_CHIP\ -Ohz --require_prototypes         #
#    List file          =  E:\ZigBeeStudy\6.ÎÂ¶È´«¸ÐÆ÷DS18B20\ZStack-CC2530-2 #
#                          .3.0-1.4.0\Projects\zstack\Samples\SampleApp\CC253 #
#                          0DB\RouterEB-Pro\List\SampleApp.lst                #
#    Object file        =  E:\ZigBeeStudy\6.ÎÂ¶È´«¸ÐÆ÷DS18B20\ZStack-CC2530-2 #
#                          .3.0-1.4.0\Projects\zstack\Samples\SampleApp\CC253 #
#                          0DB\RouterEB-Pro\Obj\SampleApp.r51                 #
#                                                                             #
#                                                                             #
###############################################################################

E:\ZigBeeStudy\6.ÎÂ¶È´«¸ÐÆ÷DS18B20\ZStack-CC2530-2.3.0-1.4.0\Projects\zstack\Samples\SampleApp\Source\SampleApp.c
      1          
      2          /*********************************************************************
      3           * INCLUDES
      4           */
      5          #include "OSAL.h"
      6          #include "ZGlobals.h"
      7          #include "ZDApp.h"
      8          #include "AF.h"
      9          
     10          #include "SampleApp.h"
     11          #include "OnBoard.h"

   \                                 In  segment SFR_AN, at 0xf3
   \   unsigned char volatile __sfr P0SEL
   \                     P0SEL:
   \   000000                DS 1
     12          #include "AT_AF.h"
     13          #include "AT_UART.h"
     14          
     15          /*********************************************************************
     16           * LOCAL VARIABLES
     17           */

   \                                 In  segment XDATA_Z, align 1, keep-with-next
     18          uint8 SampleApp_TaskID;   // Task ID for internal task/event processing
   \                     SampleApp_TaskID:
   \   000000                DS 1
   \   000001                REQUIRE __INIT_XDATA_Z
     19                                    // This variable will be received when
     20                                    // SampleApp_Init() is called.

   \                                 In  segment XDATA_Z, align 1, keep-with-next
     21          devStates_t SampleApp_NwkState;
   \                     SampleApp_NwkState:
   \   000000                DS 1
   \   000001                REQUIRE __INIT_XDATA_Z
     22          
     23          /*********************************************************************
     24           * LOCAL FUNCTIONS
     25           */
     26          void SampleApp_MessageMSGCB( afIncomingMSGPacket_t *pckt );
     27          /*********************************************************************
     28           * NETWORK LAYER CALLBACKS
     29           */
     30          
     31          /*********************************************************************
     32           * PUBLIC FUNCTIONS
     33           */
     34          
     35          /*********************************************************************
     36           * @fn      SampleApp_Init
     37           *
     38           * @brief   Initialization function for the Generic App Task.
     39           *          This is called during initialization and should contain
     40           *          any application specific initialization (ie. hardware
     41           *          initialization/setup, table initialization, power up
     42           *          notificaiton ... ).
     43           *
     44           * @param   task_id - the ID assigned by OSAL.  This ID should be
     45           *                    used to send messages and set timers.
     46           *
     47           * @return  none
     48           */

   \                                 In  segment BANKED_CODE, align 1, keep-with-next
     49          void SampleApp_Init( uint8 task_id )
   \                     SampleApp_Init:
     50          { 
   \   000000   74F7         MOV     A,#-0x9
   \   000002   12....       LCALL   ?BANKED_ENTER_XDATA
   \   000005                ; Saved register size: 9
   \   000005                ; Auto size: 0
   \   000005   E9           MOV     A,R1
     51            SampleApp_TaskID = task_id;
   \   000006   90....       MOV     DPTR,#SampleApp_TaskID
   \   000009   F0           MOVX    @DPTR,A
     52            SampleApp_NwkState = DEV_INIT;
   \   00000A   90....       MOV     DPTR,#SampleApp_NwkState
   \   00000D   7401         MOV     A,#0x1
   \   00000F   F0           MOVX    @DPTR,A
     53            AT_AF_init();
   \   000010                ; Setup parameters for call to function AT_AF_init
   \   000010   12....       LCALL   ??AT_AF_init?relay
     54            AT_UART_init();
   \   000013                ; Setup parameters for call to function AT_UART_init
   \   000013   12....       LCALL   ??AT_UART_init?relay
     55            P0SEL &= 0x7f;                  //DS18B20µÄio¿Ú³õÊ¼»¯ p0.7
   \   000016   53F37F       ANL     0xf3,#0x7f
     56          
     57          }
   \   000019                REQUIRE ?Subroutine0
   \   000019                REQUIRE P0SEL
   \   000019                ; // Fall through to label ?Subroutine0

   \                                 In  segment BANKED_CODE, align 1, keep-with-next
   \                     ?Subroutine0:
   \   000000   7F01         MOV     R7,#0x1
   \   000002   02....       LJMP    ?BANKED_LEAVE_XDATA
     58          
     59          /*********************************************************************
     60           * @fn      SampleApp_ProcessEvent
     61           *
     62           * @brief   Generic Application Task event processor.  This function
     63           *          is called to process all events for the task.  Events
     64           *          include timers, messages and any other user defined events.
     65           *
     66           * @param   task_id  - The OSAL assigned task ID.
     67           * @param   events - events to process.  This is a bit map and can
     68           *                   contain more than one event.
     69           *
     70           * @return  none
     71           */

   \                                 In  segment BANKED_CODE, align 1, keep-with-next
     72          uint16 SampleApp_ProcessEvent( uint8 task_id, uint16 events )
   \                     SampleApp_ProcessEvent:
     73          {
   \   000000   74F4         MOV     A,#-0xc
   \   000002   12....       LCALL   ?BANKED_ENTER_XDATA
   \   000005                ; Saved register size: 12
   \   000005                ; Auto size: 0
   \   000005   EA           MOV     A,R2
   \   000006   FE           MOV     R6,A
   \   000007   EB           MOV     A,R3
   \   000008   FF           MOV     R7,A
     74            afIncomingMSGPacket_t *MSGpkt;
     75            (void)task_id;  // Intentionally unreferenced parameter
     76          
     77            if ( events & SYS_EVENT_MSG )
   \   000009   5480         ANL     A,#0x80
   \   00000B   605C         JZ      ??SampleApp_ProcessEvent_0
     78            {
     79              MSGpkt = (afIncomingMSGPacket_t *)osal_msg_receive( SampleApp_TaskID );
   \   00000D                ; Setup parameters for call to function osal_msg_receive
   \   00000D   8026         SJMP    ??SampleApp_ProcessEvent_1
     80              while ( MSGpkt )
     81              {
     82                switch ( MSGpkt->hdr.event )
     83                {
     84          
     85                  // Received when a messages is received (OTA) for this endpoint
     86                  case AF_INCOMING_MSG_CMD:
     87                    SampleApp_MessageMSGCB( MSGpkt );
     88                    break;
     89          
     90                  // Received whenever the device changes state in the network
     91                  case ZDO_STATE_CHANGE:
     92                    SampleApp_NwkState = (devStates_t)(MSGpkt->hdr.status);
   \                     ??SampleApp_ProcessEvent_2:
   \   00000F   A3           INC     DPTR
   \   000010   E0           MOVX    A,@DPTR
   \   000011   90....       MOV     DPTR,#SampleApp_NwkState
   \   000014   F0           MOVX    @DPTR,A
     93                    if ( 
     94                           (SampleApp_NwkState == DEV_ROUTER)
     95                        || (SampleApp_NwkState == DEV_END_DEVICE) )
   \   000015   6407         XRL     A,#0x7
   \   000017   6005         JZ      ??SampleApp_ProcessEvent_3
   \   000019   E0           MOVX    A,@DPTR
   \   00001A   6406         XRL     A,#0x6
   \   00001C   7010         JNZ     ??SampleApp_ProcessEvent_4
     96                    {
     97                      // Start sending the periodic message in a regular interval.
     98                      osal_start_timerEx( SampleApp_TaskID,
     99                                        SAMPLEAPP_SEND_PERIODIC_MSG_EVT,
    100                                        SAMPLEAPP_SEND_PERIODIC_MSG_TIMEOUT );
   \                     ??SampleApp_ProcessEvent_3:
   \   00001E                ; Setup parameters for call to function osal_start_timerEx
   \   00001E   7CB8         MOV     R4,#-0x48
   \   000020   7D0B         MOV     R5,#0xb
   \   000022   7A01         MOV     R2,#0x1
   \   000024   7B00         MOV     R3,#0x0
   \   000026   90....       MOV     DPTR,#SampleApp_TaskID
   \   000029   E0           MOVX    A,@DPTR
   \   00002A   F9           MOV     R1,A
   \   00002B   12....       LCALL   ??osal_start_timerEx?relay
    101                    }
    102                    else
    103                    {
    104                      // Device is no longer in the network
    105                    }
    106                    break;
    107          
    108                  default:
    109                    break;
    110                }
    111          
    112                // Release the memory
    113                osal_msg_deallocate( (uint8 *)MSGpkt );
   \                     ??SampleApp_ProcessEvent_4:
   \   00002E                ; Setup parameters for call to function osal_msg_deallocate
   \   00002E   AA..         MOV     R2,?V0 + 0
   \   000030   AB..         MOV     R3,?V0 + 1
   \   000032   12....       LCALL   ??osal_msg_deallocate?relay
    114          
    115                // Next - if one is available
    116                MSGpkt = (afIncomingMSGPacket_t *)osal_msg_receive( SampleApp_TaskID );
   \   000035                ; Setup parameters for call to function osal_msg_receive
   \                     ??SampleApp_ProcessEvent_1:
   \   000035   90....       MOV     DPTR,#SampleApp_TaskID
   \   000038   E0           MOVX    A,@DPTR
   \   000039   F9           MOV     R1,A
   \   00003A   12....       LCALL   ??osal_msg_receive?relay
   \   00003D   8A..         MOV     ?V0 + 0,R2
   \   00003F   8B..         MOV     ?V0 + 1,R3
   \   000041   E5..         MOV     A,?V0 + 0
   \   000043   45..         ORL     A,?V0 + 1
   \   000045   601A         JZ      ??SampleApp_ProcessEvent_5
   \   000047   85..82       MOV     DPL,?V0 + 0
   \   00004A   85..83       MOV     DPH,?V0 + 1
   \   00004D   E0           MOVX    A,@DPTR
   \   00004E   24E6         ADD     A,#-0x1a
   \   000050   6006         JZ      ??SampleApp_ProcessEvent_6
   \   000052   2449         ADD     A,#0x49
   \   000054   60B9         JZ      ??SampleApp_ProcessEvent_2
   \   000056   80D6         SJMP    ??SampleApp_ProcessEvent_4
   \                     ??SampleApp_ProcessEvent_6:
   \   000058                ; Setup parameters for call to function SampleApp_MessageMSGCB
   \   000058   AA..         MOV     R2,?V0 + 0
   \   00005A   AB..         MOV     R3,?V0 + 1
   \   00005C   12....       LCALL   ??SampleApp_MessageMSGCB?relay
   \   00005F   80CD         SJMP    ??SampleApp_ProcessEvent_4
    117              }
    118          
    119              // return unprocessed events
    120              return (events ^ SYS_EVENT_MSG);
   \                     ??SampleApp_ProcessEvent_5:
   \   000061   EE           MOV     A,R6
   \   000062   FA           MOV     R2,A
   \   000063   EF           MOV     A,R7
   \   000064   6480         XRL     A,#0x80
   \                     ??SampleApp_ProcessEvent_7:
   \   000066   FB           MOV     R3,A
   \   000067   802A         SJMP    ??SampleApp_ProcessEvent_8
    121            }
    122          
    123            // Send a message out - This event is generated by a timer
    124            //  (setup in SampleApp_Init()).
    125            if ( events & SAMPLEAPP_SEND_PERIODIC_MSG_EVT )
   \                     ??SampleApp_ProcessEvent_0:
   \   000069   EE           MOV     A,R6
   \   00006A   A2E0         MOV     C,0xE0 /* A   */.0
   \   00006C   5021         JNC     ??SampleApp_ProcessEvent_9
    126            {
    127              // Send the periodic message
    128              //SampleApp_SendPeriodicMessage();
    129              SampleApp_Send_P2P_Message();
   \   00006E                ; Setup parameters for call to function SampleApp_Send_P2P_Message
   \   00006E   12....       LCALL   ??SampleApp_Send_P2P_Message?relay
    130          
    131              // Setup to send message again in normal period (+ a little jitter)
    132              osal_start_timerEx( SampleApp_TaskID, SAMPLEAPP_SEND_PERIODIC_MSG_EVT,
    133                  (SAMPLEAPP_SEND_PERIODIC_MSG_TIMEOUT + (osal_rand() & 0x00FF)) );
   \   000071                ; Setup parameters for call to function osal_rand
   \   000071   12....       LCALL   ??osal_rand?relay
   \   000074                ; Setup parameters for call to function osal_start_timerEx
   \   000074   EA           MOV     A,R2
   \   000075   24B8         ADD     A,#-0x48
   \   000077   FC           MOV     R4,A
   \   000078   E4           CLR     A
   \   000079   340B         ADDC    A,#0xb
   \   00007B   FD           MOV     R5,A
   \   00007C   7A01         MOV     R2,#0x1
   \   00007E   7B00         MOV     R3,#0x0
   \   000080   90....       MOV     DPTR,#SampleApp_TaskID
   \   000083   E0           MOVX    A,@DPTR
   \   000084   F9           MOV     R1,A
   \   000085   12....       LCALL   ??osal_start_timerEx?relay
    134          
    135              // return unprocessed events
    136              return (events ^ SAMPLEAPP_SEND_PERIODIC_MSG_EVT);
   \   000088   EE           MOV     A,R6
   \   000089   6401         XRL     A,#0x1
   \   00008B   FA           MOV     R2,A
   \   00008C   EF           MOV     A,R7
   \   00008D   80D7         SJMP    ??SampleApp_ProcessEvent_7
    137            }
    138          
    139            // Discard unknown events
    140            return 0;
   \                     ??SampleApp_ProcessEvent_9:
   \   00008F   7A00         MOV     R2,#0x0
   \   000091   7B00         MOV     R3,#0x0
   \                     ??SampleApp_ProcessEvent_8:
   \   000093   7F04         MOV     R7,#0x4
   \   000095   02....       LJMP    ?BANKED_LEAVE_XDATA
    141          }
    142          
    143          /*********************************************************************
    144           * Event Generation Functions
    145           */
    146          /*********************************************************************
    147           * LOCAL FUNCTIONS
    148           */
    149          
    150          /*********************************************************************
    151           * @fn      SampleApp_MessageMSGCB
    152           *
    153           * @brief   Data message processor callback.  This function processes
    154           *          any incoming data - probably from other devices.  So, based
    155           *          on cluster ID, perform the intended action.
    156           *
    157           * @param   none
    158           *
    159           * @return  none
    160           */

   \                                 In  segment BANKED_CODE, align 1, keep-with-next
    161          void SampleApp_MessageMSGCB( afIncomingMSGPacket_t *pkt )
   \                     SampleApp_MessageMSGCB:
    162          {
   \   000000   74F7         MOV     A,#-0x9
   \   000002   12....       LCALL   ?BANKED_ENTER_XDATA
   \   000005                ; Saved register size: 9
   \   000005                ; Auto size: 0
   \   000005   EA           MOV     A,R2
   \   000006   FE           MOV     R6,A
   \   000007   EB           MOV     A,R3
   \   000008   FF           MOV     R7,A
    163            switch ( pkt->clusterId )
   \   000009   8E82         MOV     DPL,R6
   \   00000B   8F83         MOV     DPH,R7
   \   00000D   A3           INC     DPTR
   \   00000E   A3           INC     DPTR
   \   00000F   A3           INC     DPTR
   \   000010   A3           INC     DPTR
   \   000011   E0           MOVX    A,@DPTR
   \   000012   6401         XRL     A,#0x1
   \   000014   7002         JNZ     ??SampleApp_MessageMSGCB_0
   \   000016   A3           INC     DPTR
   \   000017   E0           MOVX    A,@DPTR
   \                     ??SampleApp_MessageMSGCB_0:
   \   000018   703D         JNZ     ??SampleApp_MessageMSGCB_1
    164            {
    165              case SAMPLEAPP_P2P_CLUSTERID:
    166                HalUARTWrite(0, "TEMP:", 5);       //ÌáÊ¾½ÓÊÕµ½Êý¾Ý
   \   00001A                ; Setup parameters for call to function HalUARTWrite
   \   00001A   7C05         MOV     R4,#0x5
   \   00001C   7D00         MOV     R5,#0x0
   \   00001E   7A..         MOV     R2,#`?<Constant "TEMP:">` & 0xff
   \   000020   7B..         MOV     R3,#(`?<Constant "TEMP:">` >> 8) & 0xff
   \   000022   7900         MOV     R1,#0x0
   \   000024   12....       LCALL   ??HalUARTWrite?relay
    167                HalUARTWrite(0, pkt->cmd.Data, pkt->cmd.DataLength); //Êä³ö½ÓÊÕµ½µÄÊý¾Ý
   \   000027                ; Setup parameters for call to function HalUARTWrite
   \   000027   EE           MOV     A,R6
   \   000028   241F         ADD     A,#0x1f
   \   00002A   F582         MOV     DPL,A
   \   00002C   EF           MOV     A,R7
   \   00002D   3400         ADDC    A,#0x0
   \   00002F   F583         MOV     DPH,A
   \   000031   E0           MOVX    A,@DPTR
   \   000032   FC           MOV     R4,A
   \   000033   A3           INC     DPTR
   \   000034   E0           MOVX    A,@DPTR
   \   000035   FD           MOV     R5,A
   \   000036   EE           MOV     A,R6
   \   000037   2421         ADD     A,#0x21
   \   000039   F582         MOV     DPL,A
   \   00003B   EF           MOV     A,R7
   \   00003C   3400         ADDC    A,#0x0
   \   00003E   F583         MOV     DPH,A
   \   000040   E0           MOVX    A,@DPTR
   \   000041   FA           MOV     R2,A
   \   000042   A3           INC     DPTR
   \   000043   E0           MOVX    A,@DPTR
   \   000044   FB           MOV     R3,A
   \   000045   7900         MOV     R1,#0x0
   \   000047   12....       LCALL   ??HalUARTWrite?relay
    168                HalUARTWrite(0, "\n", 1);         // »Ø³µ»»ÐÐ
   \   00004A                ; Setup parameters for call to function HalUARTWrite
   \   00004A   7C01         MOV     R4,#0x1
   \   00004C   7D00         MOV     R5,#0x0
   \   00004E   7A..         MOV     R2,#`?<Constant "\\n">` & 0xff
   \   000050   7B..         MOV     R3,#(`?<Constant "\\n">` >> 8) & 0xff
   \   000052   7900         MOV     R1,#0x0
   \   000054   12....       LCALL   ??HalUARTWrite?relay
    169                break;    
    170            }
    171          }
   \                     ??SampleApp_MessageMSGCB_1:
   \   000057   02....       LJMP    ?Subroutine0 & 0xFFFF

   \                                 In  segment BANK_RELAYS, align 1
   \                     ??SampleApp_Init?relay:
   \   000000   12....       LCALL   ?BDISPATCH
   \   000003   ......       DC24    SampleApp_Init

   \                                 In  segment BANK_RELAYS, align 1
   \                     ??SampleApp_ProcessEvent?relay:
   \   000000   12....       LCALL   ?BDISPATCH
   \   000003   ......       DC24    SampleApp_ProcessEvent

   \                                 In  segment BANK_RELAYS, align 1
   \                     ??SampleApp_MessageMSGCB?relay:
   \   000000   12....       LCALL   ?BDISPATCH
   \   000003   ......       DC24    SampleApp_MessageMSGCB

   \                                 In  segment XDATA_ROM_C, align 1
   \                     `?<Constant "TEMP:">`:
   \   000000   54454D50     DB "TEMP:"
   \            3A00    

   \                                 In  segment XDATA_ROM_C, align 1
   \                     `?<Constant "\\n">`:
   \   000000   0A00         DB "\012"
    172          

   Maximum stack usage in bytes:

     Function                       ISTACK PSTACK XSTACK
     --------                       ------ ------ ------
     SampleApp_Init                     0      0      9
       -> AT_AF_init                    0      0     18
       -> AT_UART_init                  0      0     18
     SampleApp_MessageMSGCB             0      0     21
       -> HalUARTWrite                  0      0     18
       -> HalUARTWrite                  0      0     18
       -> HalUARTWrite                  0      0     18
     SampleApp_ProcessEvent             0      0     12
       -> osal_msg_receive              0      0     24
       -> osal_start_timerEx            0      0     24
       -> osal_msg_deallocate           0      0     24
       -> osal_msg_receive              0      0     24
       -> SampleApp_MessageMSGCB        0      0     24
       -> SampleApp_Send_P2P_Message
                                        0      0     24
       -> osal_rand                     0      0     24
       -> osal_start_timerEx            0      0     24


   Segment part sizes:

     Function/Label                 Bytes
     --------------                 -----
     P0SEL                             1
     SampleApp_TaskID                  1
     SampleApp_NwkState                1
     SampleApp_Init                   25
     ?Subroutine0                      5
     SampleApp_ProcessEvent          152
     SampleApp_MessageMSGCB           90
     ??SampleApp_Init?relay            6
     ??SampleApp_ProcessEvent?relay    6
     ??SampleApp_MessageMSGCB?relay    6
     ?<Constant "TEMP:">               6
     ?<Constant "\n">                  2

 
 272 bytes in segment BANKED_CODE
  18 bytes in segment BANK_RELAYS
   1 byte  in segment SFR_AN
   8 bytes in segment XDATA_ROM_C
   2 bytes in segment XDATA_Z
 
 290 bytes of CODE  memory
   8 bytes of CONST memory
   0 bytes of DATA  memory (+ 1 byte shared)
   2 bytes of XDATA memory

Errors: none
Warnings: none
