///////////////////////////////////////////////////////////////////////////////
//                                                                            /
// IAR C/C++ Compiler V8.10.3.10338/W32 for 8051        08/Nov/2016  11:40:11 /
// Copyright 2004-2011 IAR Systems AB.                                        /
//                                                                            /
//    Core               =  plain                                             /
//    Code model         =  banked                                            /
//    Data model         =  large                                             /
//    Calling convention =  xdata reentrant                                   /
//    Constant location  =  data_rom                                          /
//    Dptr setup         =  1,16                                              /
//    Source file        =  E:\gitshell\ZigBee\ZBStudy\Projects\zstack\HomeAu /
//                          tomation\SampleSwitch\Source\zcl_samplesw.c       /
//    Command line       =  -f E:\gitshell\ZigBee\ZBStudy\Projects\zstack\Hom /
//                          eAutomation\SampleSwitch\CC2530DB\..\..\..\Tools\ /
//                          CC2530DB\f8wRouter.cfg (-DCPU32MHZ                /
//                          -DROOT=__near_func -DMAC_CFG_APP_PENDING_QUEUE=TR /
//                          UE -DMAC_CFG_TX_DATA_MAX=5 -DMAC_CFG_TX_MAX=8     /
//                          -DMAC_CFG_RX_MAX=5 -DRTR_NWK) -f                  /
//                          E:\gitshell\ZigBee\ZBStudy\Projects\zstack\HomeAu /
//                          tomation\SampleSwitch\CC2530DB\..\..\..\Tools\CC2 /
//                          530DB\f8wConfig.cfg (-DZIGBEEPRO -DSECURE=0       /
//                          -DZG_SECURE_DYNAMIC=0 -DREFLECTOR                 /
//                          -DDEFAULT_CHANLIST=0x00000800                     /
//                          -DZDAPP_CONFIG_PAN_ID=0xFFF2                      /
//                          -DNWK_START_DELAY=100 -DEXTENDED_JOINING_RANDOM_M /
//                          ASK=0x007F -DBEACON_REQUEST_DELAY=100             /
//                          -DBEACON_REQ_DELAY_MASK=0x00FF                    /
//                          -DLINK_STATUS_JITTER_MASK=0x007F                  /
//                          -DROUTE_EXPIRY_TIME=30 -DAPSC_ACK_WAIT_DURATION_P /
//                          OLLED=3000 -DNWK_INDIRECT_MSG_TIMEOUT=7           /
//                          -DMAX_RREQ_ENTRIES=8 -DAPSC_MAX_FRAME_RETRIES=3   /
//                          -DNWK_MAX_DATA_RETRIES=2                          /
//                          -DMAX_POLL_FAILURE_RETRIES=2 -DMAX_BCAST=9        /
//                          -DAPS_MAX_GROUPS=16 -DMAX_RTG_ENTRIES=40          /
//                          -DNWK_MAX_BINDING_ENTRIES=4                       /
//                          -DMAX_BINDING_CLUSTER_IDS=4                       /
//                          "-DDEFAULT_KEY={0x01, 0x03, 0x05, 0x07, 0x09,     /
//                          0x0B, 0x0D, 0x0F, 0x00, 0x02, 0x04, 0x06, 0x08,   /
//                          0x0A, 0x0C, 0x0D}" -DMAC_MAX_FRAME_SIZE=116       /
//                          -DZDNWKMGR_MIN_TRANSMISSIONS=20 "-DCONST=const    /
//                          __code" -DGENERIC=__generic                       /
//                          -DRFD_RCVC_ALWAYS_ON=FALSE -DPOLL_RATE=1000       /
//                          -DQUEUED_POLL_RATE=100 -DRESPONSE_POLL_RATE=100   /
//                          -DREJOIN_POLL_RATE=440) -f                        /
//                          E:\gitshell\ZigBee\ZBStudy\Projects\zstack\HomeAu /
//                          tomation\SampleSwitch\CC2530DB\..\..\..\Tools\CC2 /
//                          530DB\f8wZCL.cfg (-DZCL_READ -DZCL_WRITE          /
//                          -DZCL_BASIC -DZCL_IDENTIFY -DZCL_ON_OFF           /
//                          -DZCL_KEY_ESTABLISH -DZCL_KEY_ESTABLISHMENT_KEY_G /
//                          ENERATE_TIMEOUT=4 -DZCL_KEY_ESTABLISHMENT_MAC_GEN /
//                          ERATE_TIMEOUT=10 -DZCL_KEY_ESTABLISHMENT_EKEY_GEN /
//                          ERATE_TIMEOUT=10 -DZCL_LOAD_CONTROL               /
//                          -DZCL_SIMPLE_METERING -DZCL_PRICING               /
//                          -DZCL_MESSAGE -DZCL_TUNNELING -DZCL_TOU)          /
//                          -DZCL_DEVICE_MGMT E:\gitshell\ZigBee\ZBStudy\Proj /
//                          ects\zstack\HomeAutomation\SampleSwitch\Source\zc /
//                          l_samplesw.c -D ZTOOL_P1 -D MT_TASK -D            /
//                          MT_APP_FUNC -D MT_SYS_FUNC -D MT_ZDO_FUNC -D      /
//                          LCD_SUPPORTED=DEBUG -lC                           /
//                          E:\gitshell\ZigBee\ZBStudy\Projects\zstack\HomeAu /
//                          tomation\SampleSwitch\CC2530DB\RouterEB\List\     /
//                          -lA E:\gitshell\ZigBee\ZBStudy\Projects\zstack\Ho /
//                          meAutomation\SampleSwitch\CC2530DB\RouterEB\List\ /
//                           --diag_suppress Pe001,Pa010 -o                   /
//                          E:\gitshell\ZigBee\ZBStudy\Projects\zstack\HomeAu /
//                          tomation\SampleSwitch\CC2530DB\RouterEB\Obj\ -e   /
//                          --no_code_motion --debug --core=plain             /
//                          --dptr=16,1 --data_model=large                    /
//                          --code_model=banked --calling_convention=xdata_re /
//                          entrant --place_constants=data_rom                /
//                          --nr_virtual_regs 16 -I                           /
//                          E:\gitshell\ZigBee\ZBStudy\Projects\zstack\HomeAu /
//                          tomation\SampleSwitch\CC2530DB\ -I                /
//                          E:\gitshell\ZigBee\ZBStudy\Projects\zstack\HomeAu /
//                          tomation\SampleSwitch\CC2530DB\..\Source\ -I      /
//                          E:\gitshell\ZigBee\ZBStudy\Projects\zstack\HomeAu /
//                          tomation\SampleSwitch\CC2530DB\..\..\Source\ -I   /
//                          E:\gitshell\ZigBee\ZBStudy\Projects\zstack\HomeAu /
//                          tomation\SampleSwitch\CC2530DB\..\..\..\ZMain\TI2 /
//                          530DB\ -I E:\gitshell\ZigBee\ZBStudy\Projects\zst /
//                          ack\HomeAutomation\SampleSwitch\CC2530DB\..\..\.. /
//                          \..\..\Components\hal\include\ -I                 /
//                          E:\gitshell\ZigBee\ZBStudy\Projects\zstack\HomeAu /
//                          tomation\SampleSwitch\CC2530DB\..\..\..\..\..\Com /
//                          ponents\hal\target\CC2530EB\ -I                   /
//                          E:\gitshell\ZigBee\ZBStudy\Projects\zstack\HomeAu /
//                          tomation\SampleSwitch\CC2530DB\..\..\..\..\..\Com /
//                          ponents\mac\include\ -I                           /
//                          E:\gitshell\ZigBee\ZBStudy\Projects\zstack\HomeAu /
//                          tomation\SampleSwitch\CC2530DB\..\..\..\..\..\Com /
//                          ponents\mac\high_level\ -I                        /
//                          E:\gitshell\ZigBee\ZBStudy\Projects\zstack\HomeAu /
//                          tomation\SampleSwitch\CC2530DB\..\..\..\..\..\Com /
//                          ponents\mac\low_level\srf04\ -I                   /
//                          E:\gitshell\ZigBee\ZBStudy\Projects\zstack\HomeAu /
//                          tomation\SampleSwitch\CC2530DB\..\..\..\..\..\Com /
//                          ponents\mac\low_level\srf04\single_chip\ -I       /
//                          E:\gitshell\ZigBee\ZBStudy\Projects\zstack\HomeAu /
//                          tomation\SampleSwitch\CC2530DB\..\..\..\..\..\Com /
//                          ponents\mt\ -I E:\gitshell\ZigBee\ZBStudy\Project /
//                          s\zstack\HomeAutomation\SampleSwitch\CC2530DB\..\ /
//                          ..\..\..\..\Components\osal\include\ -I           /
//                          E:\gitshell\ZigBee\ZBStudy\Projects\zstack\HomeAu /
//                          tomation\SampleSwitch\CC2530DB\..\..\..\..\..\Com /
//                          ponents\services\saddr\ -I                        /
//                          E:\gitshell\ZigBee\ZBStudy\Projects\zstack\HomeAu /
//                          tomation\SampleSwitch\CC2530DB\..\..\..\..\..\Com /
//                          ponents\services\sdata\ -I                        /
//                          E:\gitshell\ZigBee\ZBStudy\Projects\zstack\HomeAu /
//                          tomation\SampleSwitch\CC2530DB\..\..\..\..\..\Com /
//                          ponents\stack\af\ -I E:\gitshell\ZigBee\ZBStudy\P /
//                          rojects\zstack\HomeAutomation\SampleSwitch\CC2530 /
//                          DB\..\..\..\..\..\Components\stack\nwk\ -I        /
//                          E:\gitshell\ZigBee\ZBStudy\Projects\zstack\HomeAu /
//                          tomation\SampleSwitch\CC2530DB\..\..\..\..\..\Com /
//                          ponents\stack\sapi\ -I E:\gitshell\ZigBee\ZBStudy /
//                          \Projects\zstack\HomeAutomation\SampleSwitch\CC25 /
//                          30DB\..\..\..\..\..\Components\stack\sec\ -I      /
//                          E:\gitshell\ZigBee\ZBStudy\Projects\zstack\HomeAu /
//                          tomation\SampleSwitch\CC2530DB\..\..\..\..\..\Com /
//                          ponents\stack\sys\ -I E:\gitshell\ZigBee\ZBStudy\ /
//                          Projects\zstack\HomeAutomation\SampleSwitch\CC253 /
//                          0DB\..\..\..\..\..\Components\stack\zcl\ -I       /
//                          E:\gitshell\ZigBee\ZBStudy\Projects\zstack\HomeAu /
//                          tomation\SampleSwitch\CC2530DB\..\..\..\..\..\Com /
//                          ponents\stack\zdo\ -I E:\gitshell\ZigBee\ZBStudy\ /
//                          Projects\zstack\HomeAutomation\SampleSwitch\CC253 /
//                          0DB\..\..\..\..\..\Components\zmac\ -I            /
//                          E:\gitshell\ZigBee\ZBStudy\Projects\zstack\HomeAu /
//                          tomation\SampleSwitch\CC2530DB\..\..\..\..\..\Com /
//                          ponents\zmac\f8w\ -Ohz --require_prototypes       /
//    List file          =  E:\gitshell\ZigBee\ZBStudy\Projects\zstack\HomeAu /
//                          tomation\SampleSwitch\CC2530DB\RouterEB\List\zcl_ /
//                          samplesw.s51                                      /
//                                                                            /
//                                                                            /
///////////////////////////////////////////////////////////////////////////////

        NAME zcl_samplesw

        RTMODEL "__SystemLibrary", "CLib"
        RTMODEL "__calling_convention", "xdata_reentrant"
        RTMODEL "__code_model", "banked"
        RTMODEL "__core", "plain"
        RTMODEL "__data_model", "large"
        RTMODEL "__dptr_size", "16"
        RTMODEL "__extended_stack", "disabled"
        RTMODEL "__location_for_constants", "data"
        RTMODEL "__number_of_dptrs", "1"
        RTMODEL "__rt_version", "1"

        RSEG DOVERLAY:DATA:NOROOT(0)
        RSEG IOVERLAY:IDATA:NOROOT(0)
        RSEG ISTACK:IDATA:NOROOT(0)
        RSEG PSTACK:XDATA:NOROOT(0)
        RSEG XSTACK:XDATA:NOROOT(0)

        EXTERN ?ALLOC_XSTACK8
        EXTERN ?BANKED_ENTER_XDATA
        EXTERN ?BANKED_LEAVE_XDATA
        EXTERN ?BDISPATCH
        EXTERN ?BRET
        EXTERN ?DEALLOC_XSTACK8
        EXTERN ?MOVE_LONG8_XDATA_XDATA
        EXTERN ?PUSH_XSTACK8_X_TWO
        EXTERN ?PUSH_XSTACK_I_ONE
        EXTERN ?PUSH_XSTACK_I_TWO
        EXTERN ?V0
        EXTERN ?XSP
        EXTERN ?XSTACK_DISP0_8
        EXTERN __INIT_XDATA_I
        EXTERN __INIT_XDATA_Z

        FUNCTION ??zclSampleSw_BasicResetCB?relay,0203H
        FUNCTION ??zclSampleSw_IdentifyCB?relay,0203H
        FUNCTION ??zclSampleSw_IdentifyQueryRspCB?relay,0203H
        PUBLIC ??zclSampleSw_Init?relay
        FUNCTION ??zclSampleSw_Init?relay,0203H
        PUBLIC ??zclSampleSw_event_loop?relay
        FUNCTION ??zclSampleSw_event_loop?relay,0203H
        FUNCTION zclSampleSw_BasicResetCB,0603H
        ARGFRAME XSTACK, 0, STACK
        FUNCTION zclSampleSw_IdentifyCB,021603H
        ARGFRAME XSTACK, 0, STACK
        LOCFRAME ISTACK, 2, STACK
        FUNCTION zclSampleSw_IdentifyQueryRspCB,0603H
        ARGFRAME XSTACK, 0, STACK
        PUBLIC zclSampleSw_Init
        FUNCTION zclSampleSw_Init,021203H
        ARGFRAME XSTACK, 0, STACK
        LOCFRAME XSTACK, 9, STACK
        PUBLIC zclSampleSw_TaskID
        PUBLIC zclSampleSw_TransID
        PUBLIC zclSampleSw_event_loop
        FUNCTION zclSampleSw_event_loop,021203H
        ARGFRAME XSTACK, 0, STACK
        LOCFRAME ISTACK, 2, STACK
        LOCFRAME XSTACK, 39, STACK
        
        CFI Names cfiNames0
        CFI StackFrame CFA_SP SP IDATA
        CFI StackFrame CFA_PSP16 PSP16 XDATA
        CFI StackFrame CFA_XSP16 XSP16 XDATA
        CFI StaticOverlayFrame CFA_IOVERLAY IOVERLAY
        CFI StaticOverlayFrame CFA_DOVERLAY DOVERLAY
        CFI Resource `PSW.CY`:1, `B.BR0`:1, `B.BR1`:1, `B.BR2`:1, `B.BR3`:1
        CFI Resource `B.BR4`:1, `B.BR5`:1, `B.BR6`:1, `B.BR7`:1, `VB.BR8`:1
        CFI Resource `VB.BR9`:1, `VB.BR10`:1, `VB.BR11`:1, `VB.BR12`:1
        CFI Resource `VB.BR13`:1, `VB.BR14`:1, `VB.BR15`:1, VB:8, B:8, A:8
        CFI Resource PSW:8, DPL0:8, DPH0:8, R0:8, R1:8, R2:8, R3:8, R4:8, R5:8
        CFI Resource R6:8, R7:8, V0:8, V1:8, V2:8, V3:8, V4:8, V5:8, V6:8, V7:8
        CFI Resource V8:8, V9:8, V10:8, V11:8, V12:8, V13:8, V14:8, V15:8, SP:8
        CFI Resource PSPH:8, PSPL:8, PSP16:16, XSPH:8, XSPL:8, XSP16:16
        CFI VirtualResource ?RET:24
        CFI Resource ?BRET_EXT:8
        CFI VirtualResource ?RET_HIGH:8, ?RET_LOW:8
        CFI ResourceParts PSP16 PSPH, PSPL
        CFI ResourceParts XSP16 XSPH, XSPL
        CFI ResourceParts ?RET ?BRET_EXT, ?RET_HIGH, ?RET_LOW
        CFI EndNames cfiNames0
        
        CFI Common cfiCommon0 Using cfiNames0
        CFI CodeAlign 1
        CFI DataAlign -1
        CFI ReturnAddress ?RET CODE
        CFI CFA_DOVERLAY Used
        CFI CFA_IOVERLAY Used
        CFI CFA_SP SP+-3
        CFI CFA_PSP16 PSP16+0
        CFI CFA_XSP16 XSP16+0
        CFI `PSW.CY` SameValue
        CFI `B.BR0` SameValue
        CFI `B.BR1` SameValue
        CFI `B.BR2` SameValue
        CFI `B.BR3` SameValue
        CFI `B.BR4` SameValue
        CFI `B.BR5` SameValue
        CFI `B.BR6` SameValue
        CFI `B.BR7` SameValue
        CFI `VB.BR8` SameValue
        CFI `VB.BR9` SameValue
        CFI `VB.BR10` SameValue
        CFI `VB.BR11` SameValue
        CFI `VB.BR12` SameValue
        CFI `VB.BR13` SameValue
        CFI `VB.BR14` SameValue
        CFI `VB.BR15` SameValue
        CFI VB SameValue
        CFI B Undefined
        CFI A Undefined
        CFI PSW SameValue
        CFI DPL0 SameValue
        CFI DPH0 SameValue
        CFI R0 Undefined
        CFI R1 Undefined
        CFI R2 Undefined
        CFI R3 Undefined
        CFI R4 Undefined
        CFI R5 Undefined
        CFI R6 SameValue
        CFI R7 SameValue
        CFI V0 SameValue
        CFI V1 SameValue
        CFI V2 SameValue
        CFI V3 SameValue
        CFI V4 SameValue
        CFI V5 SameValue
        CFI V6 SameValue
        CFI V7 SameValue
        CFI V8 SameValue
        CFI V9 SameValue
        CFI V10 SameValue
        CFI V11 SameValue
        CFI V12 SameValue
        CFI V13 SameValue
        CFI V14 SameValue
        CFI V15 SameValue
        CFI PSPH Undefined
        CFI PSPL Undefined
        CFI XSPH Undefined
        CFI XSPL Undefined
        CFI ?RET Concat
        CFI ?BRET_EXT Frame(CFA_SP, 3)
        CFI ?RET_HIGH Frame(CFA_SP, 2)
        CFI ?RET_LOW Frame(CFA_SP, 1)
        CFI EndCommon cfiCommon0
        
        
        CFI Common cfiCommon1 Using cfiNames0
        CFI CodeAlign 1
        CFI DataAlign -1
        CFI ReturnAddress ?RET CODE
        CFI CFA_DOVERLAY Used
        CFI CFA_IOVERLAY Used
        CFI CFA_SP SP+-2
        CFI CFA_PSP16 PSP16+0
        CFI CFA_XSP16 XSP16+0
        CFI `PSW.CY` SameValue
        CFI `B.BR0` SameValue
        CFI `B.BR1` SameValue
        CFI `B.BR2` SameValue
        CFI `B.BR3` SameValue
        CFI `B.BR4` SameValue
        CFI `B.BR5` SameValue
        CFI `B.BR6` SameValue
        CFI `B.BR7` SameValue
        CFI `VB.BR8` SameValue
        CFI `VB.BR9` SameValue
        CFI `VB.BR10` SameValue
        CFI `VB.BR11` SameValue
        CFI `VB.BR12` SameValue
        CFI `VB.BR13` SameValue
        CFI `VB.BR14` SameValue
        CFI `VB.BR15` SameValue
        CFI VB SameValue
        CFI B SameValue
        CFI A SameValue
        CFI PSW SameValue
        CFI DPL0 SameValue
        CFI DPH0 SameValue
        CFI R0 SameValue
        CFI R1 SameValue
        CFI R2 SameValue
        CFI R3 SameValue
        CFI R4 SameValue
        CFI R5 SameValue
        CFI R6 SameValue
        CFI R7 SameValue
        CFI V0 SameValue
        CFI V1 SameValue
        CFI V2 SameValue
        CFI V3 SameValue
        CFI V4 SameValue
        CFI V5 SameValue
        CFI V6 SameValue
        CFI V7 SameValue
        CFI V8 SameValue
        CFI V9 SameValue
        CFI V10 SameValue
        CFI V11 SameValue
        CFI V12 SameValue
        CFI V13 SameValue
        CFI V14 SameValue
        CFI V15 SameValue
        CFI PSPH Undefined
        CFI PSPL Undefined
        CFI XSPH Undefined
        CFI XSPL Undefined
        CFI ?RET Concat
        CFI ?BRET_EXT SameValue
        CFI ?RET_HIGH Frame(CFA_SP, 2)
        CFI ?RET_LOW Frame(CFA_SP, 1)
        CFI EndCommon cfiCommon1
        
zclHA_Init          SYMBOL "zclHA_Init"
zclGeneral_RegisterCmdCallbacks SYMBOL "zclGeneral_RegisterCmdCallbacks"
zcl_registerAttrList SYMBOL "zcl_registerAttrList"
zcl_registerForMsg  SYMBOL "zcl_registerForMsg"
RegisterForKeys     SYMBOL "RegisterForKeys"
afRegister          SYMBOL "afRegister"
ZDO_RegisterForZDOMsg SYMBOL "ZDO_RegisterForZDOMsg"
zcl_SendCommand     SYMBOL "zcl_SendCommand"
NLME_GetShortAddr   SYMBOL "NLME_GetShortAddr"
ZDP_EndDeviceBindReq SYMBOL "ZDP_EndDeviceBindReq"
osal_msg_deallocate SYMBOL "osal_msg_deallocate"
osal_msg_receive    SYMBOL "osal_msg_receive"
osal_mem_free       SYMBOL "osal_mem_free"
osal_start_timerEx  SYMBOL "osal_start_timerEx"
HalLedSet           SYMBOL "HalLedSet"
AF_DataRequest      SYMBOL "AF_DataRequest"
??AF_DataRequest?relay SYMBOL "?relay", AF_DataRequest
??HalLedSet?relay   SYMBOL "?relay", HalLedSet
??NLME_GetShortAddr?relay SYMBOL "?relay", NLME_GetShortAddr
??RegisterForKeys?relay SYMBOL "?relay", RegisterForKeys
??ZDO_RegisterForZDOMsg?relay SYMBOL "?relay", ZDO_RegisterForZDOMsg
??ZDP_EndDeviceBindReq?relay SYMBOL "?relay", ZDP_EndDeviceBindReq
??afRegister?relay  SYMBOL "?relay", afRegister
??osal_mem_free?relay SYMBOL "?relay", osal_mem_free
??osal_msg_deallocate?relay SYMBOL "?relay", osal_msg_deallocate
??osal_msg_receive?relay SYMBOL "?relay", osal_msg_receive
??osal_start_timerEx?relay SYMBOL "?relay", osal_start_timerEx
??zclGeneral_RegisterCmdCallbacks?relay SYMBOL "?relay", zclGeneral_RegisterCmdCallbacks
??zclHA_Init?relay  SYMBOL "?relay", zclHA_Init
??zcl_SendCommand?relay SYMBOL "?relay", zcl_SendCommand
??zcl_registerAttrList?relay SYMBOL "?relay", zcl_registerAttrList
??zcl_registerForMsg?relay SYMBOL "?relay", zcl_registerForMsg
zclSampleSw_Init    SYMBOL "zclSampleSw_Init"
??zclSampleSw_Init?relay SYMBOL "?relay", zclSampleSw_Init
zclSampleSw_event_loop SYMBOL "zclSampleSw_event_loop"
??zclSampleSw_event_loop?relay SYMBOL "?relay", zclSampleSw_event_loop

        EXTERN zclHA_Init
        FUNCTION zclHA_Init,0202H
        ARGFRAME ISTACK, 0, STACK
        ARGFRAME PSTACK, 0, STACK
        ARGFRAME XSTACK, 9, STACK
        ARGFRAME IOVERLAY, 0, STATIC
        ARGFRAME DOVERLAY, 0, STATIC
        EXTERN zclGeneral_RegisterCmdCallbacks
        FUNCTION zclGeneral_RegisterCmdCallbacks,0202H
        ARGFRAME ISTACK, 0, STACK
        ARGFRAME PSTACK, 0, STACK
        ARGFRAME XSTACK, 9, STACK
        ARGFRAME IOVERLAY, 0, STATIC
        ARGFRAME DOVERLAY, 0, STATIC
        EXTERN zcl_registerAttrList
        FUNCTION zcl_registerAttrList,0202H
        ARGFRAME ISTACK, 0, STACK
        ARGFRAME PSTACK, 0, STACK
        ARGFRAME XSTACK, 9, STACK
        ARGFRAME IOVERLAY, 0, STATIC
        ARGFRAME DOVERLAY, 0, STATIC
        EXTERN zcl_registerForMsg
        FUNCTION zcl_registerForMsg,0202H
        ARGFRAME ISTACK, 0, STACK
        ARGFRAME PSTACK, 0, STACK
        ARGFRAME XSTACK, 9, STACK
        ARGFRAME IOVERLAY, 0, STATIC
        ARGFRAME DOVERLAY, 0, STATIC
        EXTERN RegisterForKeys
        FUNCTION RegisterForKeys,0202H
        ARGFRAME ISTACK, 0, STACK
        ARGFRAME PSTACK, 0, STACK
        ARGFRAME XSTACK, 9, STACK
        ARGFRAME IOVERLAY, 0, STATIC
        ARGFRAME DOVERLAY, 0, STATIC
        EXTERN afRegister
        FUNCTION afRegister,0202H
        ARGFRAME ISTACK, 0, STACK
        ARGFRAME PSTACK, 0, STACK
        ARGFRAME XSTACK, 9, STACK
        ARGFRAME IOVERLAY, 0, STATIC
        ARGFRAME DOVERLAY, 0, STATIC
        EXTERN ZDO_RegisterForZDOMsg
        FUNCTION ZDO_RegisterForZDOMsg,0202H
        ARGFRAME ISTACK, 0, STACK
        ARGFRAME PSTACK, 0, STACK
        ARGFRAME XSTACK, 9, STACK
        ARGFRAME IOVERLAY, 0, STATIC
        ARGFRAME DOVERLAY, 0, STATIC
        EXTERN zcl_SendCommand
        FUNCTION zcl_SendCommand,0202H
        ARGFRAME ISTACK, 0, STACK
        ARGFRAME PSTACK, 0, STACK
        ARGFRAME XSTACK, 39, STACK
        ARGFRAME IOVERLAY, 0, STATIC
        ARGFRAME DOVERLAY, 0, STATIC
        EXTERN NLME_GetShortAddr
        FUNCTION NLME_GetShortAddr,0202H
        ARGFRAME ISTACK, 0, STACK
        ARGFRAME PSTACK, 0, STACK
        ARGFRAME XSTACK, 28, STACK
        ARGFRAME IOVERLAY, 0, STATIC
        ARGFRAME DOVERLAY, 0, STATIC
        EXTERN ZDP_EndDeviceBindReq
        FUNCTION ZDP_EndDeviceBindReq,0202H
        ARGFRAME ISTACK, 0, STACK
        ARGFRAME PSTACK, 0, STACK
        ARGFRAME XSTACK, 37, STACK
        ARGFRAME IOVERLAY, 0, STATIC
        ARGFRAME DOVERLAY, 0, STATIC
        EXTERN osal_msg_deallocate
        FUNCTION osal_msg_deallocate,0202H
        ARGFRAME ISTACK, 0, STACK
        ARGFRAME PSTACK, 0, STACK
        ARGFRAME XSTACK, 28, STACK
        ARGFRAME IOVERLAY, 0, STATIC
        ARGFRAME DOVERLAY, 0, STATIC
        EXTERN osal_msg_receive
        FUNCTION osal_msg_receive,0202H
        ARGFRAME ISTACK, 0, STACK
        ARGFRAME PSTACK, 0, STACK
        ARGFRAME XSTACK, 28, STACK
        ARGFRAME IOVERLAY, 0, STATIC
        ARGFRAME DOVERLAY, 0, STATIC
        EXTERN osal_mem_free
        FUNCTION osal_mem_free,0202H
        ARGFRAME ISTACK, 0, STACK
        ARGFRAME PSTACK, 0, STACK
        ARGFRAME XSTACK, 28, STACK
        ARGFRAME IOVERLAY, 0, STATIC
        ARGFRAME DOVERLAY, 0, STATIC
        EXTERN osal_start_timerEx
        FUNCTION osal_start_timerEx,0202H
        ARGFRAME ISTACK, 2, STACK
        ARGFRAME PSTACK, 0, STACK
        ARGFRAME XSTACK, 28, STACK
        ARGFRAME IOVERLAY, 0, STATIC
        ARGFRAME DOVERLAY, 0, STATIC
        EXTERN HalLedSet
        FUNCTION HalLedSet,0202H
        ARGFRAME ISTACK, 0, STACK
        ARGFRAME PSTACK, 0, STACK
        ARGFRAME XSTACK, 28, STACK
        ARGFRAME IOVERLAY, 0, STATIC
        ARGFRAME DOVERLAY, 0, STATIC
        EXTERN AF_DataRequest
        FUNCTION AF_DataRequest,0202H
        ARGFRAME ISTACK, 0, STACK
        ARGFRAME PSTACK, 0, STACK
        ARGFRAME XSTACK, 37, STACK
        ARGFRAME IOVERLAY, 0, STATIC
        ARGFRAME DOVERLAY, 0, STATIC
        EXTERN ??AF_DataRequest?relay
        FUNCTION ??AF_DataRequest?relay,00H
        EXTERN ??HalLedSet?relay
        FUNCTION ??HalLedSet?relay,00H
        EXTERN ??NLME_GetShortAddr?relay
        FUNCTION ??NLME_GetShortAddr?relay,00H
        EXTERN ??RegisterForKeys?relay
        FUNCTION ??RegisterForKeys?relay,00H
        EXTERN ??ZDO_RegisterForZDOMsg?relay
        FUNCTION ??ZDO_RegisterForZDOMsg?relay,00H
        EXTERN ??ZDP_EndDeviceBindReq?relay
        FUNCTION ??ZDP_EndDeviceBindReq?relay,00H
        EXTERN ??afRegister?relay
        FUNCTION ??afRegister?relay,00H
        EXTERN ??osal_mem_free?relay
        FUNCTION ??osal_mem_free?relay,00H
        EXTERN ??osal_msg_deallocate?relay
        FUNCTION ??osal_msg_deallocate?relay,00H
        EXTERN ??osal_msg_receive?relay
        FUNCTION ??osal_msg_receive?relay,00H
        EXTERN ??osal_start_timerEx?relay
        FUNCTION ??osal_start_timerEx?relay,00H
        EXTERN ??zclGeneral_RegisterCmdCallbacks?relay
        FUNCTION ??zclGeneral_RegisterCmdCallbacks?relay,00H
        EXTERN ??zclHA_Init?relay
        FUNCTION ??zclHA_Init?relay,00H
        EXTERN ??zcl_SendCommand?relay
        FUNCTION ??zcl_SendCommand?relay,00H
        EXTERN ??zcl_registerAttrList?relay
        FUNCTION ??zcl_registerAttrList?relay,00H
        EXTERN ??zcl_registerForMsg?relay
        FUNCTION ??zcl_registerForMsg?relay,00H
        EXTERN zclSampleSw_Attrs
        EXTERN zclSampleSw_IdentifyTime
        EXTERN zclSampleSw_SimpleDesc

// E:\gitshell\ZigBee\ZBStudy\Projects\zstack\HomeAutomation\SampleSwitch\Source\zcl_samplesw.c
//    1 /**************************************************************************************************
//    2   Filename:       zcl_samplesw.c
//    3   Revised:        $Date: 2009-03-18 15:56:27 -0700 (Wed, 18 Mar 2009) $
//    4   Revision:       $Revision: 19453 $
//    5 
//    6   Description:    Zigbee Cluster Library - sample device application.
//    7 
//    8 
//    9   Copyright 2006-2009 Texas Instruments Incorporated. All rights reserved.
//   10 
//   11   IMPORTANT: Your use of this Software is limited to those specific rights
//   12   granted under the terms of a software license agreement between the user
//   13   who downloaded the software, his/her employer (which must be your employer)
//   14   and Texas Instruments Incorporated (the "License").  You may not use this
//   15   Software unless you agree to abide by the terms of the License. The License
//   16   limits your use, and you acknowledge, that the Software may not be modified,
//   17   copied or distributed unless embedded on a Texas Instruments microcontroller
//   18   or used solely and exclusively in conjunction with a Texas Instruments radio
//   19   frequency transceiver, which is integrated into your product.  Other than for
//   20   the foregoing purpose, you may not use, reproduce, copy, prepare derivative
//   21   works of, modify, distribute, perform, display or sell this Software and/or
//   22   its documentation for any purpose.
//   23 
//   24   YOU FURTHER ACKNOWLEDGE AND AGREE THAT THE SOFTWARE AND DOCUMENTATION ARE
//   25   PROVIDED “AS IS?WITHOUT WARRANTY OF ANY KIND, EITHER EXPRESS OR IMPLIED,
//   26   INCLUDING WITHOUT LIMITATION, ANY WARRANTY OF MERCHANTABILITY, TITLE,
//   27   NON-INFRINGEMENT AND FITNESS FOR A PARTICULAR PURPOSE. IN NO EVENT SHALL
//   28   TEXAS INSTRUMENTS OR ITS LICENSORS BE LIABLE OR OBLIGATED UNDER CONTRACT,
//   29   NEGLIGENCE, STRICT LIABILITY, CONTRIBUTION, BREACH OF WARRANTY, OR OTHER
//   30   LEGAL EQUITABLE THEORY ANY DIRECT OR INDIRECT DAMAGES OR EXPENSES
//   31   INCLUDING BUT NOT LIMITED TO ANY INCIDENTAL, SPECIAL, INDIRECT, PUNITIVE
//   32   OR CONSEQUENTIAL DAMAGES, LOST PROFITS OR LOST DATA, COST OF PROCUREMENT
//   33   OF SUBSTITUTE GOODS, TECHNOLOGY, SERVICES, OR ANY CLAIMS BY THIRD PARTIES
//   34   (INCLUDING BUT NOT LIMITED TO ANY DEFENSE THEREOF), OR OTHER SIMILAR COSTS.
//   35 
//   36   Should you have any questions regarding your right to use this Software,
//   37   contact Texas Instruments Incorporated at www.TI.com.
//   38 **************************************************************************************************/
//   39 
//   40 /*********************************************************************
//   41   This device will be like an On/Off Switch device. This application
//   42   is not intended to be a On/Off Switch device, but will use the device
//   43   description to implement this sample code.
//   44 *********************************************************************/
//   45 
//   46 /*********************************************************************
//   47  * INCLUDES
//   48  */
//   49 #include "ZComDef.h"
//   50 #include "OSAL.h"
//   51 #include "AF.h"
//   52 #include "ZDApp.h"
//   53 #include "ZDObject.h"
//   54 #include "ZDProfile.h"
//   55 
//   56 #include "zcl.h"
//   57 #include "zcl_general.h"
//   58 #include "zcl_ha.h"
//   59 #include "zcl_samplesw.h"
//   60 
//   61 #include "onboard.h"
//   62 
//   63 /* HAL */
//   64 #include "hal_lcd.h"
//   65 #include "hal_led.h"
//   66 #include "hal_key.h"
//   67 
//   68 
//   69 /*********************************************************************
//   70  * MACROS
//   71  */
//   72 
//   73 /*********************************************************************
//   74  * CONSTANTS
//   75  */
//   76 /*********************************************************************
//   77  * TYPEDEFS
//   78  */
//   79 
//   80 /*********************************************************************
//   81  * GLOBAL VARIABLES
//   82  */

        RSEG XDATA_Z:XDATA:NOROOT(0)
        DATA8
//   83 byte zclSampleSw_TaskID;
zclSampleSw_TaskID:
        DS 1
        REQUIRE __INIT_XDATA_Z

        RSEG XDATA_Z:XDATA:NOROOT(0)
        DATA8
//   84 uint8 zclSampleSw_TransID;
zclSampleSw_TransID:
        DS 1
        REQUIRE __INIT_XDATA_Z
//   85 /*********************************************************************
//   86  * GLOBAL FUNCTIONS
//   87  */
//   88 
//   89 /*********************************************************************
//   90  * LOCAL VARIABLES
//   91  */

        RSEG XDATA_Z:XDATA:NOROOT(0)
        DATA8
//   92 static afAddrType_t zclSampleSw_DstAddr;
zclSampleSw_DstAddr:
        DS 12
        REQUIRE __INIT_XDATA_Z

        RSEG XDATA_Z:XDATA:NOROOT(0)
        DATA8
//   93 static uint8 flag=0;
flag:
        DS 1
        REQUIRE __INIT_XDATA_Z
//   94 // Test Endpoint to allow SYS_APP_MSGs

        RSEG XDATA_I:XDATA:NOROOT(0)
//   95 static endPointDesc_t sampleSw_TestEp =
sampleSw_TestEp:
        DATA8
        DS 6
        REQUIRE `?<Initializer for sampleSw_TestEp>`
        REQUIRE __INIT_XDATA_I
//   96 {
//   97   SAMPLESW_ENDPOINT,                                 // Test endpoint
//   98   &zclSampleSw_TaskID,
//   99   (SimpleDescriptionFormat_t *)&zclSampleSw_SimpleDesc,  // No Simple description for this test endpoint
//  100   (afNetworkLatencyReq_t)0            // No Network Latency req
//  101 };
//  102 
//  103 
//  104 /*********************************************************************
//  105  * LOCAL FUNCTIONS
//  106  */
//  107 static void zclSampleSw_ProcessZDOMsgs( zdoIncomingMsg_t *inMsg );
//  108 static void zclSampleSw_HandleKeys( byte shift, byte keys );
//  109 static void zclSampleSw_BasicResetCB( void );
//  110 static void zclSampleSw_IdentifyCB( zclIdentify_t *pCmd );
//  111 static void zclSampleSw_IdentifyQueryRspCB(  zclIdentifyQueryRsp_t *pRsp );
//  112 static void zclSampleSw_ProcessIdentifyTimeChange( void );
//  113 
//  114 // Functions to process ZCL Foundation incoming Command/Response messages
//  115 static void zclSampleSw_ProcessIncomingMsg( zclIncomingMsg_t *msg );
//  116 #ifdef ZCL_READ
//  117 static uint8 zclSampleSw_ProcessInReadRspCmd( zclIncomingMsg_t *pInMsg );
//  118 #endif
//  119 #ifdef ZCL_WRITE
//  120 static uint8 zclSampleSw_ProcessInWriteRspCmd( zclIncomingMsg_t *pInMsg );
//  121 #endif
//  122 static uint8 zclSampleSw_ProcessInDefaultRspCmd( zclIncomingMsg_t *pInMsg );
//  123 #ifdef ZCL_DISCOVER
//  124 static uint8 zclSampleSw_ProcessInDiscRspCmd( zclIncomingMsg_t *pInMsg );
//  125 #endif
//  126 
//  127 /*********************************************************************
//  128  * ZCL General Profile Callback table
//  129  */

        RSEG XDATA_I:XDATA:NOROOT(0)
//  130 static zclGeneral_AppCallbacks_t zclSampleSw_CmdCallbacks =
zclSampleSw_CmdCallbacks:
        DATA8
        DS 30
        REQUIRE `?<Initializer for zclSampleSw_CmdCallbacks>`
        REQUIRE __INIT_XDATA_I
//  131 {
//  132   zclSampleSw_BasicResetCB,     // Basic Cluster Reset command
//  133   zclSampleSw_IdentifyCB,       // Identify command
//  134   zclSampleSw_IdentifyQueryRspCB, // Identify Query Response command
//  135   NULL,                         // On / Off cluster command - not needed.
//  136   NULL,                         // Level Control Move to Level command
//  137   NULL,                         // Level Control Move command
//  138   NULL,                         // Level Control Step command
//  139   NULL,                         // Group Response commands
//  140   NULL,                         // Scene Store Request command
//  141   NULL,                         // Scene Recall Request command
//  142   NULL,                         // Scene Response commands
//  143   NULL,                         // Alarm (Response) commands
//  144   NULL,                         // RSSI Location commands
//  145   NULL,                         // RSSI Location Response commands
//  146 };
//  147 
//  148 
//  149 /*********************************************************************
//  150  * @fn          zclSampleSw_Init
//  151  *
//  152  * @brief       Initialization function for the zclGeneral layer.
//  153  *
//  154  * @param       none
//  155  *
//  156  * @return      none
//  157  */

        RSEG BANKED_CODE:CODE:NOROOT(0)
//  158 void zclSampleSw_Init( byte task_id )
zclSampleSw_Init:
        CFI Block cfiBlock0 Using cfiCommon0
        CFI Function zclSampleSw_Init
        CODE
//  159 {
        FUNCALL zclSampleSw_Init, zclHA_Init
        LOCFRAME ISTACK, 0, STACK
        LOCFRAME PSTACK, 0, STACK
        LOCFRAME XSTACK, 9, STACK
        LOCFRAME IOVERLAY, 0, STATIC
        LOCFRAME DOVERLAY, 0, STATIC
        ARGFRAME ISTACK, 0, STACK
        ARGFRAME PSTACK, 0, STACK
        ARGFRAME XSTACK, 9, STACK
        ARGFRAME IOVERLAY, 0, STATIC
        ARGFRAME DOVERLAY, 0, STATIC
        FUNCALL zclSampleSw_Init, zclGeneral_RegisterCmdCallbacks
        LOCFRAME ISTACK, 0, STACK
        LOCFRAME PSTACK, 0, STACK
        LOCFRAME XSTACK, 9, STACK
        LOCFRAME IOVERLAY, 0, STATIC
        LOCFRAME DOVERLAY, 0, STATIC
        ARGFRAME ISTACK, 0, STACK
        ARGFRAME PSTACK, 0, STACK
        ARGFRAME XSTACK, 9, STACK
        ARGFRAME IOVERLAY, 0, STATIC
        ARGFRAME DOVERLAY, 0, STATIC
        FUNCALL zclSampleSw_Init, zcl_registerAttrList
        LOCFRAME ISTACK, 0, STACK
        LOCFRAME PSTACK, 0, STACK
        LOCFRAME XSTACK, 9, STACK
        LOCFRAME IOVERLAY, 0, STATIC
        LOCFRAME DOVERLAY, 0, STATIC
        ARGFRAME ISTACK, 0, STACK
        ARGFRAME PSTACK, 0, STACK
        ARGFRAME XSTACK, 9, STACK
        ARGFRAME IOVERLAY, 0, STATIC
        ARGFRAME DOVERLAY, 0, STATIC
        FUNCALL zclSampleSw_Init, zcl_registerForMsg
        LOCFRAME ISTACK, 0, STACK
        LOCFRAME PSTACK, 0, STACK
        LOCFRAME XSTACK, 9, STACK
        LOCFRAME IOVERLAY, 0, STATIC
        LOCFRAME DOVERLAY, 0, STATIC
        ARGFRAME ISTACK, 0, STACK
        ARGFRAME PSTACK, 0, STACK
        ARGFRAME XSTACK, 9, STACK
        ARGFRAME IOVERLAY, 0, STATIC
        ARGFRAME DOVERLAY, 0, STATIC
        FUNCALL zclSampleSw_Init, RegisterForKeys
        LOCFRAME ISTACK, 0, STACK
        LOCFRAME PSTACK, 0, STACK
        LOCFRAME XSTACK, 9, STACK
        LOCFRAME IOVERLAY, 0, STATIC
        LOCFRAME DOVERLAY, 0, STATIC
        ARGFRAME ISTACK, 0, STACK
        ARGFRAME PSTACK, 0, STACK
        ARGFRAME XSTACK, 9, STACK
        ARGFRAME IOVERLAY, 0, STATIC
        ARGFRAME DOVERLAY, 0, STATIC
        FUNCALL zclSampleSw_Init, afRegister
        LOCFRAME ISTACK, 0, STACK
        LOCFRAME PSTACK, 0, STACK
        LOCFRAME XSTACK, 9, STACK
        LOCFRAME IOVERLAY, 0, STATIC
        LOCFRAME DOVERLAY, 0, STATIC
        ARGFRAME ISTACK, 0, STACK
        ARGFRAME PSTACK, 0, STACK
        ARGFRAME XSTACK, 9, STACK
        ARGFRAME IOVERLAY, 0, STATIC
        ARGFRAME DOVERLAY, 0, STATIC
        FUNCALL zclSampleSw_Init, ZDO_RegisterForZDOMsg
        LOCFRAME ISTACK, 0, STACK
        LOCFRAME PSTACK, 0, STACK
        LOCFRAME XSTACK, 9, STACK
        LOCFRAME IOVERLAY, 0, STATIC
        LOCFRAME DOVERLAY, 0, STATIC
        ARGFRAME ISTACK, 0, STACK
        ARGFRAME PSTACK, 0, STACK
        ARGFRAME XSTACK, 9, STACK
        ARGFRAME IOVERLAY, 0, STATIC
        ARGFRAME DOVERLAY, 0, STATIC
        MOV     A,#-0x9
        LCALL   ?BANKED_ENTER_XDATA
        CFI DPH0 load(1, XDATA, add(CFA_XSP16, literal(-1)))
        CFI DPL0 load(1, XDATA, add(CFA_XSP16, literal(-2)))
        CFI ?BRET_EXT load(1, XDATA, add(CFA_XSP16, literal(-3)))
        CFI ?RET_HIGH load(1, XDATA, add(CFA_XSP16, literal(-4)))
        CFI ?RET_LOW load(1, XDATA, add(CFA_XSP16, literal(-5)))
        CFI R7 load(1, XDATA, add(CFA_XSP16, literal(-6)))
        CFI V0 load(1, XDATA, add(CFA_XSP16, literal(-7)))
        CFI VB load(1, XDATA, add(CFA_XSP16, literal(-8)))
        CFI R6 load(1, XDATA, add(CFA_XSP16, literal(-9)))
        CFI CFA_SP SP+0
        CFI CFA_XSP16 add(XSP16, 9)
        ; Saved register size: 9
        ; Auto size: 0
        MOV     A,R1
//  160   zclSampleSw_TaskID = task_id;
        MOV     DPTR,#zclSampleSw_TaskID
        MOVX    @DPTR,A
//  161   zclSampleSw_TransID = 0;
        MOV     DPTR,#zclSampleSw_TransID
        CLR     A
        MOVX    @DPTR,A
//  162   // This app is part of the Home Automation Profile
//  163   zclHA_Init( &zclSampleSw_SimpleDesc );
        ; Setup parameters for call to function zclHA_Init
        MOV     R2,#zclSampleSw_SimpleDesc & 0xff
        MOV     R3,#(zclSampleSw_SimpleDesc >> 8) & 0xff
        LCALL   ??zclHA_Init?relay
//  164 
//  165   // Register the ZCL General Cluster Library callback functions
//  166   zclGeneral_RegisterCmdCallbacks( SAMPLESW_ENDPOINT, &zclSampleSw_CmdCallbacks );
        ; Setup parameters for call to function zclGeneral_RegisterCmdCallbacks
        MOV     R2,#zclSampleSw_CmdCallbacks & 0xff
        MOV     R3,#(zclSampleSw_CmdCallbacks >> 8) & 0xff
        MOV     R1,#0xc
        LCALL   ??zclGeneral_RegisterCmdCallbacks?relay
//  167 
//  168   // Register the application's attribute list
//  169   zcl_registerAttrList( SAMPLESW_ENDPOINT, SAMPLESW_MAX_ATTRIBUTES, zclSampleSw_Attrs );
        ; Setup parameters for call to function zcl_registerAttrList
        MOV     R4,#zclSampleSw_Attrs & 0xff
        MOV     R5,#(zclSampleSw_Attrs >> 8) & 0xff
        MOV     R2,#0xb
        MOV     R1,#0xc
        LCALL   ??zcl_registerAttrList?relay
//  170 
//  171   // Register the Application to receive the unprocessed Foundation command/response messages
//  172   zcl_registerForMsg( zclSampleSw_TaskID );
        ; Setup parameters for call to function zcl_registerForMsg
        MOV     DPTR,#zclSampleSw_TaskID
        MOVX    A,@DPTR
        MOV     R1,A
        LCALL   ??zcl_registerForMsg?relay
//  173 
//  174   // Register for all key events - This app will handle all key events
//  175   RegisterForKeys( zclSampleSw_TaskID );
        ; Setup parameters for call to function RegisterForKeys
        MOV     DPTR,#zclSampleSw_TaskID
        MOVX    A,@DPTR
        MOV     R1,A
        LCALL   ??RegisterForKeys?relay
//  176 
//  177   // Register for a test endpoint
//  178   afRegister( &sampleSw_TestEp );
        ; Setup parameters for call to function afRegister
        MOV     R2,#sampleSw_TestEp & 0xff
        MOV     R3,#(sampleSw_TestEp >> 8) & 0xff
        LCALL   ??afRegister?relay
//  179 
//  180   ZDO_RegisterForZDOMsg( zclSampleSw_TaskID, End_Device_Bind_rsp );
        ; Setup parameters for call to function ZDO_RegisterForZDOMsg
        MOV     R2,#0x20
        MOV     R3,#-0x80
        MOV     DPTR,#zclSampleSw_TaskID
        MOVX    A,@DPTR
        MOV     R1,A
        LCALL   ??ZDO_RegisterForZDOMsg?relay
//  181   //ZDO_RegisterForZDOMsg( zclSampleSw_TaskID, Match_Desc_rsp );
//  182 }
        MOV     R7,#0x1
        LJMP    ?BANKED_LEAVE_XDATA
        CFI EndBlock cfiBlock0
//  183 
//  184 /*********************************************************************
//  185  * @fn          zclSample_event_loop
//  186  *
//  187  * @brief       Event Loop Processor for zclGeneral.
//  188  *
//  189  * @param       none
//  190  *
//  191  * @return      none
//  192  */

        RSEG BANKED_CODE:CODE:NOROOT(0)
//  193 uint16 zclSampleSw_event_loop( uint8 task_id, uint16 events )
zclSampleSw_event_loop:
        CFI Block cfiBlock1 Using cfiCommon0
        CFI Function zclSampleSw_event_loop
        CODE
//  194 {
        FUNCALL zclSampleSw_event_loop, zcl_SendCommand
        LOCFRAME ISTACK, 0, STACK
        LOCFRAME PSTACK, 0, STACK
        LOCFRAME XSTACK, 39, STACK
        LOCFRAME IOVERLAY, 0, STATIC
        LOCFRAME DOVERLAY, 0, STATIC
        ARGFRAME ISTACK, 0, STACK
        ARGFRAME PSTACK, 0, STACK
        ARGFRAME XSTACK, 39, STACK
        ARGFRAME IOVERLAY, 0, STATIC
        ARGFRAME DOVERLAY, 0, STATIC
        FUNCALL zclSampleSw_event_loop, NLME_GetShortAddr
        LOCFRAME ISTACK, 0, STACK
        LOCFRAME PSTACK, 0, STACK
        LOCFRAME XSTACK, 28, STACK
        LOCFRAME IOVERLAY, 0, STATIC
        LOCFRAME DOVERLAY, 0, STATIC
        ARGFRAME ISTACK, 0, STACK
        ARGFRAME PSTACK, 0, STACK
        ARGFRAME XSTACK, 28, STACK
        ARGFRAME IOVERLAY, 0, STATIC
        ARGFRAME DOVERLAY, 0, STATIC
        FUNCALL zclSampleSw_event_loop, ZDP_EndDeviceBindReq
        LOCFRAME ISTACK, 0, STACK
        LOCFRAME PSTACK, 0, STACK
        LOCFRAME XSTACK, 37, STACK
        LOCFRAME IOVERLAY, 0, STATIC
        LOCFRAME DOVERLAY, 0, STATIC
        ARGFRAME ISTACK, 0, STACK
        ARGFRAME PSTACK, 0, STACK
        ARGFRAME XSTACK, 37, STACK
        ARGFRAME IOVERLAY, 0, STATIC
        ARGFRAME DOVERLAY, 0, STATIC
        FUNCALL zclSampleSw_event_loop, osal_msg_deallocate
        LOCFRAME ISTACK, 0, STACK
        LOCFRAME PSTACK, 0, STACK
        LOCFRAME XSTACK, 28, STACK
        LOCFRAME IOVERLAY, 0, STATIC
        LOCFRAME DOVERLAY, 0, STATIC
        ARGFRAME ISTACK, 0, STACK
        ARGFRAME PSTACK, 0, STACK
        ARGFRAME XSTACK, 28, STACK
        ARGFRAME IOVERLAY, 0, STATIC
        ARGFRAME DOVERLAY, 0, STATIC
        FUNCALL zclSampleSw_event_loop, osal_msg_receive
        LOCFRAME ISTACK, 0, STACK
        LOCFRAME PSTACK, 0, STACK
        LOCFRAME XSTACK, 28, STACK
        LOCFRAME IOVERLAY, 0, STATIC
        LOCFRAME DOVERLAY, 0, STATIC
        ARGFRAME ISTACK, 0, STACK
        ARGFRAME PSTACK, 0, STACK
        ARGFRAME XSTACK, 28, STACK
        ARGFRAME IOVERLAY, 0, STATIC
        ARGFRAME DOVERLAY, 0, STATIC
        FUNCALL zclSampleSw_event_loop, osal_mem_free
        LOCFRAME ISTACK, 0, STACK
        LOCFRAME PSTACK, 0, STACK
        LOCFRAME XSTACK, 28, STACK
        LOCFRAME IOVERLAY, 0, STATIC
        LOCFRAME DOVERLAY, 0, STATIC
        ARGFRAME ISTACK, 0, STACK
        ARGFRAME PSTACK, 0, STACK
        ARGFRAME XSTACK, 28, STACK
        ARGFRAME IOVERLAY, 0, STATIC
        ARGFRAME DOVERLAY, 0, STATIC
        FUNCALL zclSampleSw_event_loop, osal_start_timerEx
        LOCFRAME ISTACK, 0, STACK
        LOCFRAME PSTACK, 0, STACK
        LOCFRAME XSTACK, 28, STACK
        LOCFRAME IOVERLAY, 0, STATIC
        LOCFRAME DOVERLAY, 0, STATIC
        ARGFRAME ISTACK, 0, STACK
        ARGFRAME PSTACK, 0, STACK
        ARGFRAME XSTACK, 28, STACK
        ARGFRAME IOVERLAY, 0, STATIC
        ARGFRAME DOVERLAY, 0, STATIC
        FUNCALL zclSampleSw_event_loop, zcl_SendCommand
        LOCFRAME ISTACK, 0, STACK
        LOCFRAME PSTACK, 0, STACK
        LOCFRAME XSTACK, 39, STACK
        LOCFRAME IOVERLAY, 0, STATIC
        LOCFRAME DOVERLAY, 0, STATIC
        ARGFRAME ISTACK, 0, STACK
        ARGFRAME PSTACK, 0, STACK
        ARGFRAME XSTACK, 39, STACK
        ARGFRAME IOVERLAY, 0, STATIC
        ARGFRAME DOVERLAY, 0, STATIC
        FUNCALL zclSampleSw_event_loop, osal_start_timerEx
        LOCFRAME ISTACK, 0, STACK
        LOCFRAME PSTACK, 0, STACK
        LOCFRAME XSTACK, 28, STACK
        LOCFRAME IOVERLAY, 0, STATIC
        LOCFRAME DOVERLAY, 0, STATIC
        ARGFRAME ISTACK, 0, STACK
        ARGFRAME PSTACK, 0, STACK
        ARGFRAME XSTACK, 28, STACK
        ARGFRAME IOVERLAY, 0, STATIC
        ARGFRAME DOVERLAY, 0, STATIC
        FUNCALL zclSampleSw_event_loop, HalLedSet
        LOCFRAME ISTACK, 0, STACK
        LOCFRAME PSTACK, 0, STACK
        LOCFRAME XSTACK, 28, STACK
        LOCFRAME IOVERLAY, 0, STATIC
        LOCFRAME DOVERLAY, 0, STATIC
        ARGFRAME ISTACK, 0, STACK
        ARGFRAME PSTACK, 0, STACK
        ARGFRAME XSTACK, 28, STACK
        ARGFRAME IOVERLAY, 0, STATIC
        ARGFRAME DOVERLAY, 0, STATIC
        FUNCALL zclSampleSw_event_loop, AF_DataRequest
        LOCFRAME ISTACK, 0, STACK
        LOCFRAME PSTACK, 0, STACK
        LOCFRAME XSTACK, 37, STACK
        LOCFRAME IOVERLAY, 0, STATIC
        LOCFRAME DOVERLAY, 0, STATIC
        ARGFRAME ISTACK, 0, STACK
        ARGFRAME PSTACK, 0, STACK
        ARGFRAME XSTACK, 37, STACK
        ARGFRAME IOVERLAY, 0, STATIC
        ARGFRAME DOVERLAY, 0, STATIC
        MOV     A,#-0xc
        LCALL   ?BANKED_ENTER_XDATA
        CFI DPH0 load(1, XDATA, add(CFA_XSP16, literal(-1)))
        CFI DPL0 load(1, XDATA, add(CFA_XSP16, literal(-2)))
        CFI ?BRET_EXT load(1, XDATA, add(CFA_XSP16, literal(-3)))
        CFI ?RET_HIGH load(1, XDATA, add(CFA_XSP16, literal(-4)))
        CFI ?RET_LOW load(1, XDATA, add(CFA_XSP16, literal(-5)))
        CFI R7 load(1, XDATA, add(CFA_XSP16, literal(-6)))
        CFI V3 load(1, XDATA, add(CFA_XSP16, literal(-7)))
        CFI V2 load(1, XDATA, add(CFA_XSP16, literal(-8)))
        CFI V1 load(1, XDATA, add(CFA_XSP16, literal(-9)))
        CFI V0 load(1, XDATA, add(CFA_XSP16, literal(-10)))
        CFI VB load(1, XDATA, add(CFA_XSP16, literal(-11)))
        CFI R6 load(1, XDATA, add(CFA_XSP16, literal(-12)))
        CFI CFA_SP SP+0
        CFI CFA_XSP16 add(XSP16, 12)
        ; Saved register size: 12
        ; Auto size: 16
        MOV     A,#-0x10
        LCALL   ?ALLOC_XSTACK8
        CFI CFA_XSP16 add(XSP16, 28)
        MOV     A,R2
        MOV     R6,A
        MOV     A,R3
        MOV     R7,A
//  195   afIncomingMSGPacket_t *MSGpkt;
//  196   (void)task_id;  // Intentionally unreferenced parameter
//  197 
//  198   if ( events & SYS_EVENT_MSG )
        ANL     A,#0x80
        JZ      $+5
        LJMP    ??zclSampleSw_event_loop_0 & 0xFFFF
//  199   {
//  200     while ( (MSGpkt = (afIncomingMSGPacket_t *)osal_msg_receive( zclSampleSw_TaskID )) )
//  201     {
//  202       switch ( MSGpkt->hdr.event )
//  203       {
//  204         case ZCL_INCOMING_MSG:
//  205           // Incoming ZCL Foundation command/response messages
//  206           zclSampleSw_ProcessIncomingMsg( (zclIncomingMsg_t *)MSGpkt );
//  207           break;
//  208 
//  209         case ZDO_CB_MSG:
//  210           zclSampleSw_ProcessZDOMsgs( (zdoIncomingMsg_t *)MSGpkt );
//  211           break;
//  212 
//  213         case KEY_CHANGE:
//  214           zclSampleSw_HandleKeys( ((keyChange_t *)MSGpkt)->state, ((keyChange_t *)MSGpkt)->keys );
//  215           break;
//  216 
//  217         default:
//  218           break;
//  219       }
//  220 
//  221       // Release the memory
//  222       osal_msg_deallocate( (uint8 *)MSGpkt );
//  223     }
//  224 
//  225     // return unprocessed events
//  226     return (events ^ SYS_EVENT_MSG);
//  227   }
//  228   
//  229   if ( events & SAMPLESW_ONOFF_EVT )
        MOV     A,R6
        MOV     C,0xE0 /* A   */.0
        JC      $+5
        LJMP    ??zclSampleSw_event_loop_1 & 0xFFFF
//  230   {
//  231     // Set destination address to indirect
//  232   zclSampleSw_DstAddr.addrMode = (afAddrMode_t)AddrNotPresent;
        MOV     DPTR,#zclSampleSw_DstAddr + 8
        CLR     A
        MOVX    @DPTR,A
//  233   zclSampleSw_DstAddr.endPoint = 13;
        INC     DPTR
        MOV     A,#0xd
        LCALL   ?Subroutine2 & 0xFFFF
//  234   zclSampleSw_DstAddr.addr.shortAddr = 0;
//  235     if(!flag){
??CrossCallReturnLabel_4:
        MOV     DPTR,#flag
        MOVX    A,@DPTR
        JZ      $+5
        LJMP    ??zclSampleSw_event_loop_2 & 0xFFFF
//  236       zclGeneral_SendOnOff_CmdOn(SAMPLESW_ENDPOINT,&zclSampleSw_DstAddr,0,1);
        ; Setup parameters for call to function zcl_SendCommand
        CLR     A
        MOV     ?V0 + 0,A
        MOV     ?V0 + 1,A
        MOV     R0,#?V0 + 0
        LCALL   ?PUSH_XSTACK_I_TWO
        CFI CFA_XSP16 add(XSP16, 30)
        MOV     R0,#?V0 + 0
        LCALL   ?PUSH_XSTACK_I_TWO
        CFI CFA_XSP16 add(XSP16, 32)
        MOV     ?V0 + 0,#0x1
        MOV     R0,#?V0 + 0
        LCALL   ?PUSH_XSTACK_I_ONE
        CFI CFA_XSP16 add(XSP16, 33)
        CLR     A
        MOV     ?V0 + 0,A
        MOV     R0,#?V0 + 0
        LCALL   ?PUSH_XSTACK_I_TWO
        CFI CFA_XSP16 add(XSP16, 35)
        MOV     R0,#?V0 + 0
        LCALL   ?PUSH_XSTACK_I_ONE
        CFI CFA_XSP16 add(XSP16, 36)
        MOV     R0,#?V0 + 0
        LCALL   ?PUSH_XSTACK_I_ONE
        CFI CFA_XSP16 add(XSP16, 37)
        MOV     ?V0 + 0,#0x1
        MOV     R0,#?V0 + 0
        LCALL   ?PUSH_XSTACK_I_ONE
        CFI CFA_XSP16 add(XSP16, 38)
        MOV     R0,#?V0 + 0
        LCALL   ?PUSH_XSTACK_I_ONE
        CFI CFA_XSP16 add(XSP16, 39)
        MOV     R4,#0x6
        MOV     R5,#0x0
        MOV     R2,#zclSampleSw_DstAddr & 0xff
        MOV     R3,#(zclSampleSw_DstAddr >> 8) & 0xff
        MOV     R1,#0xc
        LCALL   ??zcl_SendCommand?relay
        MOV     A,#0xb
        LCALL   ?DEALLOC_XSTACK8
        CFI CFA_XSP16 add(XSP16, 28)
//  237       flag=1;
        MOV     DPTR,#flag
        MOV     A,#0x1
        MOVX    @DPTR,A
        LJMP    ??zclSampleSw_event_loop_3 & 0xFFFF
//  238     }
??zclSampleSw_event_loop_4:
        INC     DPTR
        INC     DPTR
        INC     DPTR
        MOVX    A,@DPTR
        MOV     C,0xE0 /* A   */.1
        JNC     ??zclSampleSw_event_loop_5
        MOV     A,#0x8
        LCALL   ?XSTACK_DISP0_8
        MOV     A,#0x2
        MOVX    @DPTR,A
        MOV     DPL,?XSP + 0
        MOV     DPH,?XSP + 1
        CLR     A
        MOVX    @DPTR,A
        INC     DPTR
        MOVX    @DPTR,A
        ; Setup parameters for call to function NLME_GetShortAddr
        LCALL   ??NLME_GetShortAddr?relay
        MOV     ?V0 + 2,R2
        MOV     ?V0 + 3,R3
        MOV     R4,?V0 + 2
        MOV     R5,?V0 + 3
        ; Setup parameters for call to function ZDP_EndDeviceBindReq
        MOV     ?V0 + 2,#0x1
        MOV     R0,#?V0 + 2
        LCALL   ?PUSH_XSTACK_I_ONE
        CFI CFA_XSP16 add(XSP16, 29)
        MOV     DPTR,#zclSampleSw_SimpleDesc + 10
        LCALL   ?PUSH_XSTACK8_X_TWO
        CFI CFA_XSP16 add(XSP16, 31)
        MOV     DPTR,#zclSampleSw_SimpleDesc + 9
        MOVX    A,@DPTR
        MOV     ?V0 + 2,A
        MOV     R0,#?V0 + 2
        LCALL   ?PUSH_XSTACK_I_ONE
        CFI CFA_XSP16 add(XSP16, 32)
        CLR     A
        MOV     ?V0 + 2,A
        MOV     ?V0 + 3,A
        MOV     R0,#?V0 + 2
        LCALL   ?PUSH_XSTACK_I_TWO
        CFI CFA_XSP16 add(XSP16, 34)
        MOV     R0,#?V0 + 2
        LCALL   ?PUSH_XSTACK_I_ONE
        CFI CFA_XSP16 add(XSP16, 35)
        MOV     ?V0 + 2,#0x4
        MOV     ?V0 + 3,#0x1
        MOV     R0,#?V0 + 2
        LCALL   ?PUSH_XSTACK_I_TWO
        CFI CFA_XSP16 add(XSP16, 37)
        MOV     R1,#0xc
        MOV     A,#0x9
        LCALL   ?XSTACK_DISP0_8
        MOV     R2,DPL
        MOV     R3,DPH
        LCALL   ??ZDP_EndDeviceBindReq?relay
        MOV     A,#0x9
        LCALL   ?DEALLOC_XSTACK8
        CFI CFA_XSP16 add(XSP16, 28)
??zclSampleSw_event_loop_5:
        ; Setup parameters for call to function osal_msg_deallocate
        MOV     R2,?V0 + 0
        MOV     R3,?V0 + 1
        LCALL   ??osal_msg_deallocate?relay
??zclSampleSw_event_loop_0:
        ; Setup parameters for call to function osal_msg_receive
        MOV     DPTR,#zclSampleSw_TaskID
        MOVX    A,@DPTR
        MOV     R1,A
        LCALL   ??osal_msg_receive?relay
        MOV     ?V0 + 0,R2
        MOV     ?V0 + 1,R3
        MOV     A,R2
        ORL     A,?V0 + 1
        JNZ     $+5
        LJMP    ??zclSampleSw_event_loop_6 & 0xFFFF
        MOV     DPL,R2
        MOV     DPH,R3
        MOVX    A,@DPTR
        ADD     A,#-0x34
        JZ      ??zclSampleSw_event_loop_7
        ADD     A,#0x74
        JNZ     $+5
        LJMP    ??zclSampleSw_event_loop_4 & 0xFFFF
        ADD     A,#-0x13
        JZ      ??zclSampleSw_event_loop_8
        SJMP    ??zclSampleSw_event_loop_5
??zclSampleSw_event_loop_7:
        INC     DPTR
        INC     DPTR
        INC     DPTR
        INC     DPTR
        INC     DPTR
        INC     DPTR
        INC     DPTR
        MOVX    A,@DPTR
        DEC     A
        JZ      ??zclSampleSw_event_loop_9
        ADD     A,#-0x3
        JNZ     ??zclSampleSw_event_loop_10
        LCALL   ?Subroutine0 & 0xFFFF
??CrossCallReturnLabel_0:
        MOVX    A,@DPTR
        MOV     R0,A
        MOV     A,R1
        CLR     C
        SUBB    A,R0
        JNC     ??zclSampleSw_event_loop_10
        INC     R1
        SJMP    ??CrossCallReturnLabel_0
??zclSampleSw_event_loop_9:
        LCALL   ?Subroutine0 & 0xFFFF
??CrossCallReturnLabel_1:
        SJMP    ??zclSampleSw_event_loop_11
??zclSampleSw_event_loop_12:
        INC     R1
??zclSampleSw_event_loop_11:
        MOVX    A,@DPTR
        MOV     R0,A
        MOV     A,R1
        CLR     C
        SUBB    A,R0
        JC      ??zclSampleSw_event_loop_12
??zclSampleSw_event_loop_10:
        LCALL   ?Subroutine1 & 0xFFFF
??CrossCallReturnLabel_2:
        MOV     R0,A
        INC     DPTR
        MOVX    A,@DPTR
        MOV     R1,A
        MOV     A,R0
        ORL     A,R1
        JZ      ??zclSampleSw_event_loop_5
        ; Setup parameters for call to function osal_mem_free
        LCALL   ?Subroutine1 & 0xFFFF
??CrossCallReturnLabel_3:
        MOV     R2,A
        INC     DPTR
        MOVX    A,@DPTR
        MOV     R3,A
        LCALL   ??osal_mem_free?relay
        SJMP    ??zclSampleSw_event_loop_5
??zclSampleSw_event_loop_8:
        MOV     A,R2
        ADD     A,#0xc
        MOV     DPL,A
        MOV     A,R3
        ADDC    A,#0x0
        MOV     DPH,A
        MOVX    A,@DPTR
        XRL     A,#0x20
        JNZ     ??zclSampleSw_event_loop_13
        INC     DPTR
        MOVX    A,@DPTR
        XRL     A,#0x80
??zclSampleSw_event_loop_13:
        JZ      $+5
        LJMP    ??zclSampleSw_event_loop_5 & 0xFFFF
        MOV     A,R2
        ADD     A,#0x13
        MOV     DPL,A
        MOV     A,R3
        ADDC    A,#0x0
        MOV     DPH,A
        MOVX    A,@DPTR
        MOV     R0,A
        INC     DPTR
        MOVX    A,@DPTR
        MOV     DPH,A
        MOV     DPL,R0
        MOVX    A,@DPTR
        JZ      $+5
        LJMP    ??zclSampleSw_event_loop_5 & 0xFFFF
        ; Setup parameters for call to function osal_start_timerEx
        LCALL   ?Subroutine3 & 0xFFFF
??CrossCallReturnLabel_10:
        LJMP    ??zclSampleSw_event_loop_5 & 0xFFFF
??zclSampleSw_event_loop_6:
        MOV     A,R6
        MOV     R2,A
        MOV     A,R7
        XRL     A,#0x80
??zclSampleSw_event_loop_14:
        MOV     R3,A
        LJMP    ??zclSampleSw_event_loop_15 & 0xFFFF
//  239     if(flag==1){
??zclSampleSw_event_loop_2:
        XRL     A,#0x1
        JNZ     ??zclSampleSw_event_loop_16
//  240       zclGeneral_SendOnOff_CmdOff(SAMPLESW_ENDPOINT,&zclSampleSw_DstAddr,0,1);
??zclSampleSw_event_loop_3:
        ; Setup parameters for call to function zcl_SendCommand
        CLR     A
        MOV     ?V0 + 0,A
        MOV     ?V0 + 1,A
        MOV     R0,#?V0 + 0
        LCALL   ?PUSH_XSTACK_I_TWO
        CFI CFA_XSP16 add(XSP16, 30)
        MOV     R0,#?V0 + 0
        LCALL   ?PUSH_XSTACK_I_TWO
        CFI CFA_XSP16 add(XSP16, 32)
        MOV     ?V0 + 0,#0x1
        MOV     R0,#?V0 + 0
        LCALL   ?PUSH_XSTACK_I_ONE
        CFI CFA_XSP16 add(XSP16, 33)
        CLR     A
        MOV     ?V0 + 0,A
        MOV     R0,#?V0 + 0
        LCALL   ?PUSH_XSTACK_I_TWO
        CFI CFA_XSP16 add(XSP16, 35)
        MOV     R0,#?V0 + 0
        LCALL   ?PUSH_XSTACK_I_ONE
        CFI CFA_XSP16 add(XSP16, 36)
        MOV     R0,#?V0 + 0
        LCALL   ?PUSH_XSTACK_I_ONE
        CFI CFA_XSP16 add(XSP16, 37)
        MOV     ?V0 + 0,#0x1
        MOV     R0,#?V0 + 0
        LCALL   ?PUSH_XSTACK_I_ONE
        CFI CFA_XSP16 add(XSP16, 38)
        MOV     ?V0 + 0,#0x0
        MOV     R0,#?V0 + 0
        LCALL   ?PUSH_XSTACK_I_ONE
        CFI CFA_XSP16 add(XSP16, 39)
        MOV     R4,#0x6
        MOV     R5,#0x0
        MOV     R2,#zclSampleSw_DstAddr & 0xff
        MOV     R3,#(zclSampleSw_DstAddr >> 8) & 0xff
        MOV     R1,#0xc
        LCALL   ??zcl_SendCommand?relay
        MOV     A,#0xb
        LCALL   ?DEALLOC_XSTACK8
        CFI CFA_XSP16 add(XSP16, 28)
//  241       flag=0;
        MOV     DPTR,#flag
        CLR     A
        MOVX    @DPTR,A
//  242     }
//  243     osal_start_timerEx(zclSampleSw_TaskID, SAMPLESW_ONOFF_EVT, SAMPLESW_ONOFF_TIMEOUT);
??zclSampleSw_event_loop_16:
        ; Setup parameters for call to function osal_start_timerEx
        LCALL   ?Subroutine3 & 0xFFFF
//  244     return ( events ^ SAMPLESW_ONOFF_EVT );
??CrossCallReturnLabel_8:
        MOV     A,R6
        XRL     A,#0x1
        MOV     R2,A
        MOV     A,R7
        SJMP    ??zclSampleSw_event_loop_14
//  245   }
//  246   
//  247   if ( events & SAMPLESW_IDENTIFY_TIMEOUT_EVT )
??zclSampleSw_event_loop_1:
        ANL     A,#0x2
        JZ      ??zclSampleSw_event_loop_17
//  248   {
//  249     HalLedSet( HAL_LED_1, HAL_LED_MODE_TOGGLE );
        ; Setup parameters for call to function HalLedSet
        MOV     R2,#0x8
        MOV     R1,#0x1
        LCALL   ??HalLedSet?relay
//  250     // Set destination address to indirect
//  251         uint8 buf[]="change";
        MOV     A,#0x9
        LCALL   ?XSTACK_DISP0_8
        MOV     R4,DPL
        MOV     R5,DPH
        MOV     DPH,#(`?<Constant "change">` >> 8) & 0xff
        MOV     DPL,#`?<Constant "change">` & 0xff
        MOV     A,#0x7
        LCALL   ?MOVE_LONG8_XDATA_XDATA
//  252         zclSampleSw_DstAddr.addrMode = (afAddrMode_t)Addr16Bit;
        MOV     DPTR,#zclSampleSw_DstAddr + 8
        MOV     A,#0x2
        MOVX    @DPTR,A
//  253         zclSampleSw_DstAddr.endPoint = 20;
        INC     DPTR
        MOV     A,#0x14
        LCALL   ?Subroutine2 & 0xFFFF
//  254         zclSampleSw_DstAddr.addr.shortAddr = 0;
//  255     AF_DataRequest(&zclSampleSw_DstAddr, &sampleSw_TestEp,
//  256                            SAMPLE_RECEIVE_CLUSTERID, 8, buf, &zclSampleSw_TransID,
//  257                            AF_DISCV_ROUTE, AF_DEFAULT_RADIUS); 
??CrossCallReturnLabel_5:
        ; Setup parameters for call to function AF_DataRequest
        MOV     ?V0 + 0,#0x1e
        MOV     R0,#?V0 + 0
        LCALL   ?PUSH_XSTACK_I_ONE
        CFI CFA_XSP16 add(XSP16, 29)
        MOV     ?V0 + 0,#zclSampleSw_TransID & 0xff
        MOV     ?V0 + 1,#(zclSampleSw_TransID >> 8) & 0xff
        MOV     R0,#?V0 + 0
        LCALL   ?PUSH_XSTACK_I_TWO
        CFI CFA_XSP16 add(XSP16, 31)
        MOV     A,#0xc
        LCALL   ?XSTACK_DISP0_8
        MOV     ?V0 + 0,DPL
        MOV     ?V0 + 1,DPH
        MOV     R0,#?V0 + 0
        LCALL   ?PUSH_XSTACK_I_TWO
        CFI CFA_XSP16 add(XSP16, 33)
        MOV     ?V0 + 0,#0x8
        MOV     ?V0 + 1,#0x0
        MOV     R0,#?V0 + 0
        LCALL   ?PUSH_XSTACK_I_TWO
        CFI CFA_XSP16 add(XSP16, 35)
        MOV     ?V0 + 0,#0x1
        MOV     R0,#?V0 + 0
        LCALL   ?PUSH_XSTACK_I_TWO
        CFI CFA_XSP16 add(XSP16, 37)
        MOV     R1,#0x20
        MOV     R4,#sampleSw_TestEp & 0xff
        MOV     R5,#(sampleSw_TestEp >> 8) & 0xff
        MOV     R2,#zclSampleSw_DstAddr & 0xff
        MOV     R3,#(zclSampleSw_DstAddr >> 8) & 0xff
        LCALL   ??AF_DataRequest?relay
        MOV     A,#0x9
        LCALL   ?DEALLOC_XSTACK8
        CFI CFA_XSP16 add(XSP16, 28)
//  258     return ( events ^ SAMPLESW_IDENTIFY_TIMEOUT_EVT );
        MOV     A,R6
        XRL     A,#0x2
        MOV     R2,A
        MOV     A,R7
        MOV     R3,A
        SJMP    ??zclSampleSw_event_loop_15
//  259   }
//  260 
//  261   // Discard unknown events
//  262   return 0;
??zclSampleSw_event_loop_17:
        MOV     R2,#0x0
        MOV     R3,#0x0
??zclSampleSw_event_loop_15:
        MOV     A,#0x10
        LCALL   ?DEALLOC_XSTACK8
        CFI CFA_XSP16 add(XSP16, 12)
        MOV     R7,#0x4
        LJMP    ?BANKED_LEAVE_XDATA
        CFI EndBlock cfiBlock1
//  263 }

        RSEG BANKED_CODE:CODE:NOROOT(0)
?Subroutine3:
        CFI Block cfiCond2 Using cfiCommon0
        CFI NoFunction
        CFI Conditional ??CrossCallReturnLabel_10
        CFI R6 load(1, XDATA, add(CFA_XSP16, literal(-12)))
        CFI VB load(1, XDATA, add(CFA_XSP16, literal(-11)))
        CFI V0 load(1, XDATA, add(CFA_XSP16, literal(-10)))
        CFI V1 load(1, XDATA, add(CFA_XSP16, literal(-9)))
        CFI V2 load(1, XDATA, add(CFA_XSP16, literal(-8)))
        CFI V3 load(1, XDATA, add(CFA_XSP16, literal(-7)))
        CFI R7 load(1, XDATA, add(CFA_XSP16, literal(-6)))
        CFI ?RET_LOW load(1, XDATA, add(CFA_XSP16, literal(-5)))
        CFI ?RET_HIGH load(1, XDATA, add(CFA_XSP16, literal(-4)))
        CFI ?BRET_EXT load(1, XDATA, add(CFA_XSP16, literal(-3)))
        CFI DPL0 load(1, XDATA, add(CFA_XSP16, literal(-2)))
        CFI DPH0 load(1, XDATA, add(CFA_XSP16, literal(-1)))
        CFI CFA_SP SP+0
        CFI CFA_XSP16 add(XSP16, 28)
        CFI Block cfiCond3 Using cfiCommon0
        CFI (cfiCond3) NoFunction
        CFI (cfiCond3) Conditional ??CrossCallReturnLabel_8
        CFI (cfiCond3) R6 load(1, XDATA, add(CFA_XSP16, literal(-12)))
        CFI (cfiCond3) VB load(1, XDATA, add(CFA_XSP16, literal(-11)))
        CFI (cfiCond3) V0 load(1, XDATA, add(CFA_XSP16, literal(-10)))
        CFI (cfiCond3) V1 load(1, XDATA, add(CFA_XSP16, literal(-9)))
        CFI (cfiCond3) V2 load(1, XDATA, add(CFA_XSP16, literal(-8)))
        CFI (cfiCond3) V3 load(1, XDATA, add(CFA_XSP16, literal(-7)))
        CFI (cfiCond3) R7 load(1, XDATA, add(CFA_XSP16, literal(-6)))
        CFI (cfiCond3) ?RET_LOW load(1, XDATA, add(CFA_XSP16, literal(-5)))
        CFI (cfiCond3) ?RET_HIGH load(1, XDATA, add(CFA_XSP16, literal(-4)))
        CFI (cfiCond3) ?BRET_EXT load(1, XDATA, add(CFA_XSP16, literal(-3)))
        CFI (cfiCond3) DPL0 load(1, XDATA, add(CFA_XSP16, literal(-2)))
        CFI (cfiCond3) DPH0 load(1, XDATA, add(CFA_XSP16, literal(-1)))
        CFI (cfiCond3) CFA_SP SP+0
        CFI (cfiCond3) CFA_XSP16 add(XSP16, 28)
        CFI Block cfiPicker4 Using cfiCommon1
        CFI (cfiPicker4) NoFunction
        CFI (cfiPicker4) Picker
        MOV     R4,#-0x30
        MOV     R5,#0x7
        MOV     R2,#0x1
        CFI EndBlock cfiCond2
        CFI EndBlock cfiCond3
        CFI EndBlock cfiPicker4
        REQUIRE ??Subroutine5_0
        ; // Fall through to label ??Subroutine5_0

        RSEG BANKED_CODE:CODE:NOROOT(0)
??Subroutine5_0:
        CFI Block cfiCond5 Using cfiCommon0
        CFI NoFunction
        CFI Conditional ??CrossCallReturnLabel_9
        CFI DPL0 Frame(CFA_SP, 4)
        CFI DPH0 Frame(CFA_SP, 5)
        CFI CFA_SP SP+-5
        CFI Block cfiCond6 Using cfiCommon0
        CFI (cfiCond6) NoFunction
        CFI (cfiCond6) Conditional ??CrossCallReturnLabel_10
        CFI (cfiCond6) R6 load(1, XDATA, add(CFA_XSP16, literal(-12)))
        CFI (cfiCond6) VB load(1, XDATA, add(CFA_XSP16, literal(-11)))
        CFI (cfiCond6) V0 load(1, XDATA, add(CFA_XSP16, literal(-10)))
        CFI (cfiCond6) V1 load(1, XDATA, add(CFA_XSP16, literal(-9)))
        CFI (cfiCond6) V2 load(1, XDATA, add(CFA_XSP16, literal(-8)))
        CFI (cfiCond6) V3 load(1, XDATA, add(CFA_XSP16, literal(-7)))
        CFI (cfiCond6) R7 load(1, XDATA, add(CFA_XSP16, literal(-6)))
        CFI (cfiCond6) ?RET_LOW load(1, XDATA, add(CFA_XSP16, literal(-5)))
        CFI (cfiCond6) ?RET_HIGH load(1, XDATA, add(CFA_XSP16, literal(-4)))
        CFI (cfiCond6) ?BRET_EXT load(1, XDATA, add(CFA_XSP16, literal(-3)))
        CFI (cfiCond6) DPL0 load(1, XDATA, add(CFA_XSP16, literal(-2)))
        CFI (cfiCond6) DPH0 load(1, XDATA, add(CFA_XSP16, literal(-1)))
        CFI (cfiCond6) CFA_SP SP+0
        CFI (cfiCond6) CFA_XSP16 add(XSP16, 28)
        CFI Block cfiCond7 Using cfiCommon0
        CFI (cfiCond7) NoFunction
        CFI (cfiCond7) Conditional ??CrossCallReturnLabel_8
        CFI (cfiCond7) R6 load(1, XDATA, add(CFA_XSP16, literal(-12)))
        CFI (cfiCond7) VB load(1, XDATA, add(CFA_XSP16, literal(-11)))
        CFI (cfiCond7) V0 load(1, XDATA, add(CFA_XSP16, literal(-10)))
        CFI (cfiCond7) V1 load(1, XDATA, add(CFA_XSP16, literal(-9)))
        CFI (cfiCond7) V2 load(1, XDATA, add(CFA_XSP16, literal(-8)))
        CFI (cfiCond7) V3 load(1, XDATA, add(CFA_XSP16, literal(-7)))
        CFI (cfiCond7) R7 load(1, XDATA, add(CFA_XSP16, literal(-6)))
        CFI (cfiCond7) ?RET_LOW load(1, XDATA, add(CFA_XSP16, literal(-5)))
        CFI (cfiCond7) ?RET_HIGH load(1, XDATA, add(CFA_XSP16, literal(-4)))
        CFI (cfiCond7) ?BRET_EXT load(1, XDATA, add(CFA_XSP16, literal(-3)))
        CFI (cfiCond7) DPL0 load(1, XDATA, add(CFA_XSP16, literal(-2)))
        CFI (cfiCond7) DPH0 load(1, XDATA, add(CFA_XSP16, literal(-1)))
        CFI (cfiCond7) CFA_SP SP+0
        CFI (cfiCond7) CFA_XSP16 add(XSP16, 28)
        CFI Block cfiPicker8 Using cfiCommon1
        CFI (cfiPicker8) NoFunction
        CFI (cfiPicker8) Picker
        MOV     R3,#0x0
        MOV     DPTR,#zclSampleSw_TaskID
        MOVX    A,@DPTR
        MOV     R1,A
        LCALL   ??osal_start_timerEx?relay
        RET
        CFI EndBlock cfiCond5
        CFI EndBlock cfiCond6
        CFI EndBlock cfiCond7
        CFI EndBlock cfiPicker8

        RSEG BANKED_CODE:CODE:NOROOT(0)
?Subroutine2:
        CFI Block cfiCond9 Using cfiCommon0
        CFI NoFunction
        CFI Conditional ??CrossCallReturnLabel_4
        CFI R6 load(1, XDATA, add(CFA_XSP16, literal(-12)))
        CFI VB load(1, XDATA, add(CFA_XSP16, literal(-11)))
        CFI V0 load(1, XDATA, add(CFA_XSP16, literal(-10)))
        CFI V1 load(1, XDATA, add(CFA_XSP16, literal(-9)))
        CFI V2 load(1, XDATA, add(CFA_XSP16, literal(-8)))
        CFI V3 load(1, XDATA, add(CFA_XSP16, literal(-7)))
        CFI R7 load(1, XDATA, add(CFA_XSP16, literal(-6)))
        CFI ?RET_LOW load(1, XDATA, add(CFA_XSP16, literal(-5)))
        CFI ?RET_HIGH load(1, XDATA, add(CFA_XSP16, literal(-4)))
        CFI ?BRET_EXT load(1, XDATA, add(CFA_XSP16, literal(-3)))
        CFI DPL0 load(1, XDATA, add(CFA_XSP16, literal(-2)))
        CFI DPH0 load(1, XDATA, add(CFA_XSP16, literal(-1)))
        CFI CFA_SP SP+0
        CFI CFA_XSP16 add(XSP16, 28)
        CFI Block cfiCond10 Using cfiCommon0
        CFI (cfiCond10) NoFunction
        CFI (cfiCond10) Conditional ??CrossCallReturnLabel_5
        CFI (cfiCond10) R6 load(1, XDATA, add(CFA_XSP16, literal(-12)))
        CFI (cfiCond10) VB load(1, XDATA, add(CFA_XSP16, literal(-11)))
        CFI (cfiCond10) V0 load(1, XDATA, add(CFA_XSP16, literal(-10)))
        CFI (cfiCond10) V1 load(1, XDATA, add(CFA_XSP16, literal(-9)))
        CFI (cfiCond10) V2 load(1, XDATA, add(CFA_XSP16, literal(-8)))
        CFI (cfiCond10) V3 load(1, XDATA, add(CFA_XSP16, literal(-7)))
        CFI (cfiCond10) R7 load(1, XDATA, add(CFA_XSP16, literal(-6)))
        CFI (cfiCond10) ?RET_LOW load(1, XDATA, add(CFA_XSP16, literal(-5)))
        CFI (cfiCond10) ?RET_HIGH load(1, XDATA, add(CFA_XSP16, literal(-4)))
        CFI (cfiCond10) ?BRET_EXT load(1, XDATA, add(CFA_XSP16, literal(-3)))
        CFI (cfiCond10) DPL0 load(1, XDATA, add(CFA_XSP16, literal(-2)))
        CFI (cfiCond10) DPH0 load(1, XDATA, add(CFA_XSP16, literal(-1)))
        CFI (cfiCond10) CFA_SP SP+0
        CFI (cfiCond10) CFA_XSP16 add(XSP16, 28)
        CFI Block cfiPicker11 Using cfiCommon1
        CFI (cfiPicker11) NoFunction
        CFI (cfiPicker11) Picker
        MOVX    @DPTR,A
        MOV     DPTR,#zclSampleSw_DstAddr
        CLR     A
        MOVX    @DPTR,A
        INC     DPTR
        MOVX    @DPTR,A
        RET
        CFI EndBlock cfiCond9
        CFI EndBlock cfiCond10
        CFI EndBlock cfiPicker11

        RSEG BANKED_CODE:CODE:NOROOT(0)
?Subroutine1:
        CFI Block cfiCond12 Using cfiCommon0
        CFI NoFunction
        CFI Conditional ??CrossCallReturnLabel_2
        CFI R6 load(1, XDATA, add(CFA_XSP16, literal(-12)))
        CFI VB load(1, XDATA, add(CFA_XSP16, literal(-11)))
        CFI V0 load(1, XDATA, add(CFA_XSP16, literal(-10)))
        CFI V1 load(1, XDATA, add(CFA_XSP16, literal(-9)))
        CFI V2 load(1, XDATA, add(CFA_XSP16, literal(-8)))
        CFI V3 load(1, XDATA, add(CFA_XSP16, literal(-7)))
        CFI R7 load(1, XDATA, add(CFA_XSP16, literal(-6)))
        CFI ?RET_LOW load(1, XDATA, add(CFA_XSP16, literal(-5)))
        CFI ?RET_HIGH load(1, XDATA, add(CFA_XSP16, literal(-4)))
        CFI ?BRET_EXT load(1, XDATA, add(CFA_XSP16, literal(-3)))
        CFI DPL0 load(1, XDATA, add(CFA_XSP16, literal(-2)))
        CFI DPH0 load(1, XDATA, add(CFA_XSP16, literal(-1)))
        CFI CFA_SP SP+0
        CFI CFA_XSP16 add(XSP16, 28)
        CFI Block cfiCond13 Using cfiCommon0
        CFI (cfiCond13) NoFunction
        CFI (cfiCond13) Conditional ??CrossCallReturnLabel_3
        CFI (cfiCond13) R6 load(1, XDATA, add(CFA_XSP16, literal(-12)))
        CFI (cfiCond13) VB load(1, XDATA, add(CFA_XSP16, literal(-11)))
        CFI (cfiCond13) V0 load(1, XDATA, add(CFA_XSP16, literal(-10)))
        CFI (cfiCond13) V1 load(1, XDATA, add(CFA_XSP16, literal(-9)))
        CFI (cfiCond13) V2 load(1, XDATA, add(CFA_XSP16, literal(-8)))
        CFI (cfiCond13) V3 load(1, XDATA, add(CFA_XSP16, literal(-7)))
        CFI (cfiCond13) R7 load(1, XDATA, add(CFA_XSP16, literal(-6)))
        CFI (cfiCond13) ?RET_LOW load(1, XDATA, add(CFA_XSP16, literal(-5)))
        CFI (cfiCond13) ?RET_HIGH load(1, XDATA, add(CFA_XSP16, literal(-4)))
        CFI (cfiCond13) ?BRET_EXT load(1, XDATA, add(CFA_XSP16, literal(-3)))
        CFI (cfiCond13) DPL0 load(1, XDATA, add(CFA_XSP16, literal(-2)))
        CFI (cfiCond13) DPH0 load(1, XDATA, add(CFA_XSP16, literal(-1)))
        CFI (cfiCond13) CFA_SP SP+0
        CFI (cfiCond13) CFA_XSP16 add(XSP16, 28)
        CFI Block cfiPicker14 Using cfiCommon1
        CFI (cfiPicker14) NoFunction
        CFI (cfiPicker14) Picker
        LCALL   ?Subroutine4 & 0xFFFF
??CrossCallReturnLabel_7:
        RET
        CFI EndBlock cfiCond12
        CFI EndBlock cfiCond13
        CFI EndBlock cfiPicker14

        RSEG BANKED_CODE:CODE:NOROOT(0)
?Subroutine4:
        CFI Block cfiCond15 Using cfiCommon0
        CFI NoFunction
        CFI Conditional ??CrossCallReturnLabel_7, ??CrossCallReturnLabel_2
        CFI R6 load(1, XDATA, add(CFA_XSP16, literal(-12)))
        CFI VB load(1, XDATA, add(CFA_XSP16, literal(-11)))
        CFI V0 load(1, XDATA, add(CFA_XSP16, literal(-10)))
        CFI V1 load(1, XDATA, add(CFA_XSP16, literal(-9)))
        CFI V2 load(1, XDATA, add(CFA_XSP16, literal(-8)))
        CFI V3 load(1, XDATA, add(CFA_XSP16, literal(-7)))
        CFI R7 load(1, XDATA, add(CFA_XSP16, literal(-6)))
        CFI ?RET_LOW load(1, XDATA, add(CFA_XSP16, literal(-5)))
        CFI ?RET_HIGH load(1, XDATA, add(CFA_XSP16, literal(-4)))
        CFI ?BRET_EXT load(1, XDATA, add(CFA_XSP16, literal(-3)))
        CFI DPL0 load(1, XDATA, add(CFA_XSP16, literal(-2)))
        CFI DPH0 load(1, XDATA, add(CFA_XSP16, literal(-1)))
        CFI CFA_SP SP+0
        CFI CFA_XSP16 add(XSP16, 28)
        CFI Block cfiCond16 Using cfiCommon0
        CFI (cfiCond16) NoFunction
        CFI (cfiCond16) Conditional ??CrossCallReturnLabel_7, ??CrossCallReturnLabel_3
        CFI (cfiCond16) R6 load(1, XDATA, add(CFA_XSP16, literal(-12)))
        CFI (cfiCond16) VB load(1, XDATA, add(CFA_XSP16, literal(-11)))
        CFI (cfiCond16) V0 load(1, XDATA, add(CFA_XSP16, literal(-10)))
        CFI (cfiCond16) V1 load(1, XDATA, add(CFA_XSP16, literal(-9)))
        CFI (cfiCond16) V2 load(1, XDATA, add(CFA_XSP16, literal(-8)))
        CFI (cfiCond16) V3 load(1, XDATA, add(CFA_XSP16, literal(-7)))
        CFI (cfiCond16) R7 load(1, XDATA, add(CFA_XSP16, literal(-6)))
        CFI (cfiCond16) ?RET_LOW load(1, XDATA, add(CFA_XSP16, literal(-5)))
        CFI (cfiCond16) ?RET_HIGH load(1, XDATA, add(CFA_XSP16, literal(-4)))
        CFI (cfiCond16) ?BRET_EXT load(1, XDATA, add(CFA_XSP16, literal(-3)))
        CFI (cfiCond16) DPL0 load(1, XDATA, add(CFA_XSP16, literal(-2)))
        CFI (cfiCond16) DPH0 load(1, XDATA, add(CFA_XSP16, literal(-1)))
        CFI (cfiCond16) CFA_SP SP+0
        CFI (cfiCond16) CFA_XSP16 add(XSP16, 28)
        CFI Block cfiCond17 Using cfiCommon0
        CFI (cfiCond17) NoFunction
        CFI (cfiCond17) Conditional ??CrossCallReturnLabel_6, ??CrossCallReturnLabel_0
        CFI (cfiCond17) R6 load(1, XDATA, add(CFA_XSP16, literal(-12)))
        CFI (cfiCond17) VB load(1, XDATA, add(CFA_XSP16, literal(-11)))
        CFI (cfiCond17) V0 load(1, XDATA, add(CFA_XSP16, literal(-10)))
        CFI (cfiCond17) V1 load(1, XDATA, add(CFA_XSP16, literal(-9)))
        CFI (cfiCond17) V2 load(1, XDATA, add(CFA_XSP16, literal(-8)))
        CFI (cfiCond17) V3 load(1, XDATA, add(CFA_XSP16, literal(-7)))
        CFI (cfiCond17) R7 load(1, XDATA, add(CFA_XSP16, literal(-6)))
        CFI (cfiCond17) ?RET_LOW load(1, XDATA, add(CFA_XSP16, literal(-5)))
        CFI (cfiCond17) ?RET_HIGH load(1, XDATA, add(CFA_XSP16, literal(-4)))
        CFI (cfiCond17) ?BRET_EXT load(1, XDATA, add(CFA_XSP16, literal(-3)))
        CFI (cfiCond17) DPL0 load(1, XDATA, add(CFA_XSP16, literal(-2)))
        CFI (cfiCond17) DPH0 load(1, XDATA, add(CFA_XSP16, literal(-1)))
        CFI (cfiCond17) CFA_SP SP+0
        CFI (cfiCond17) CFA_XSP16 add(XSP16, 28)
        CFI Block cfiCond18 Using cfiCommon0
        CFI (cfiCond18) NoFunction
        CFI (cfiCond18) Conditional ??CrossCallReturnLabel_6, ??CrossCallReturnLabel_1
        CFI (cfiCond18) R6 load(1, XDATA, add(CFA_XSP16, literal(-12)))
        CFI (cfiCond18) VB load(1, XDATA, add(CFA_XSP16, literal(-11)))
        CFI (cfiCond18) V0 load(1, XDATA, add(CFA_XSP16, literal(-10)))
        CFI (cfiCond18) V1 load(1, XDATA, add(CFA_XSP16, literal(-9)))
        CFI (cfiCond18) V2 load(1, XDATA, add(CFA_XSP16, literal(-8)))
        CFI (cfiCond18) V3 load(1, XDATA, add(CFA_XSP16, literal(-7)))
        CFI (cfiCond18) R7 load(1, XDATA, add(CFA_XSP16, literal(-6)))
        CFI (cfiCond18) ?RET_LOW load(1, XDATA, add(CFA_XSP16, literal(-5)))
        CFI (cfiCond18) ?RET_HIGH load(1, XDATA, add(CFA_XSP16, literal(-4)))
        CFI (cfiCond18) ?BRET_EXT load(1, XDATA, add(CFA_XSP16, literal(-3)))
        CFI (cfiCond18) DPL0 load(1, XDATA, add(CFA_XSP16, literal(-2)))
        CFI (cfiCond18) DPH0 load(1, XDATA, add(CFA_XSP16, literal(-1)))
        CFI (cfiCond18) CFA_SP SP+0
        CFI (cfiCond18) CFA_XSP16 add(XSP16, 28)
        CFI Block cfiPicker19 Using cfiCommon1
        CFI (cfiPicker19) NoFunction
        CFI (cfiPicker19) Picker
        MOV     A,R2
        ADD     A,#0x17
        MOV     DPL,A
        MOV     A,R3
        ADDC    A,#0x0
        MOV     DPH,A
        MOVX    A,@DPTR
        RET
        CFI EndBlock cfiCond15
        CFI EndBlock cfiCond16
        CFI EndBlock cfiCond17
        CFI EndBlock cfiCond18
        CFI EndBlock cfiPicker19

        RSEG BANKED_CODE:CODE:NOROOT(0)
?Subroutine0:
        CFI Block cfiCond20 Using cfiCommon0
        CFI NoFunction
        CFI Conditional ??CrossCallReturnLabel_0
        CFI R6 load(1, XDATA, add(CFA_XSP16, literal(-12)))
        CFI VB load(1, XDATA, add(CFA_XSP16, literal(-11)))
        CFI V0 load(1, XDATA, add(CFA_XSP16, literal(-10)))
        CFI V1 load(1, XDATA, add(CFA_XSP16, literal(-9)))
        CFI V2 load(1, XDATA, add(CFA_XSP16, literal(-8)))
        CFI V3 load(1, XDATA, add(CFA_XSP16, literal(-7)))
        CFI R7 load(1, XDATA, add(CFA_XSP16, literal(-6)))
        CFI ?RET_LOW load(1, XDATA, add(CFA_XSP16, literal(-5)))
        CFI ?RET_HIGH load(1, XDATA, add(CFA_XSP16, literal(-4)))
        CFI ?BRET_EXT load(1, XDATA, add(CFA_XSP16, literal(-3)))
        CFI DPL0 load(1, XDATA, add(CFA_XSP16, literal(-2)))
        CFI DPH0 load(1, XDATA, add(CFA_XSP16, literal(-1)))
        CFI CFA_SP SP+0
        CFI CFA_XSP16 add(XSP16, 28)
        CFI Block cfiCond21 Using cfiCommon0
        CFI (cfiCond21) NoFunction
        CFI (cfiCond21) Conditional ??CrossCallReturnLabel_1
        CFI (cfiCond21) R6 load(1, XDATA, add(CFA_XSP16, literal(-12)))
        CFI (cfiCond21) VB load(1, XDATA, add(CFA_XSP16, literal(-11)))
        CFI (cfiCond21) V0 load(1, XDATA, add(CFA_XSP16, literal(-10)))
        CFI (cfiCond21) V1 load(1, XDATA, add(CFA_XSP16, literal(-9)))
        CFI (cfiCond21) V2 load(1, XDATA, add(CFA_XSP16, literal(-8)))
        CFI (cfiCond21) V3 load(1, XDATA, add(CFA_XSP16, literal(-7)))
        CFI (cfiCond21) R7 load(1, XDATA, add(CFA_XSP16, literal(-6)))
        CFI (cfiCond21) ?RET_LOW load(1, XDATA, add(CFA_XSP16, literal(-5)))
        CFI (cfiCond21) ?RET_HIGH load(1, XDATA, add(CFA_XSP16, literal(-4)))
        CFI (cfiCond21) ?BRET_EXT load(1, XDATA, add(CFA_XSP16, literal(-3)))
        CFI (cfiCond21) DPL0 load(1, XDATA, add(CFA_XSP16, literal(-2)))
        CFI (cfiCond21) DPH0 load(1, XDATA, add(CFA_XSP16, literal(-1)))
        CFI (cfiCond21) CFA_SP SP+0
        CFI (cfiCond21) CFA_XSP16 add(XSP16, 28)
        CFI Block cfiPicker22 Using cfiCommon1
        CFI (cfiPicker22) NoFunction
        CFI (cfiPicker22) Picker
        LCALL   ?Subroutine4 & 0xFFFF
??CrossCallReturnLabel_6:
        MOV     R0,A
        INC     DPTR
        MOVX    A,@DPTR
        MOV     R1,A
        MOV     DPL,R0
        MOV     DPH,R1
        MOV     R1,#0x0
        RET
        CFI EndBlock cfiCond20
        CFI EndBlock cfiCond21
        CFI EndBlock cfiPicker22
//  264 
//  265 
//  266 /*********************************************************************
//  267  * @fn      zclSampleSw_ProcessZDOMsgs()
//  268  *
//  269  * @brief   Process response messages
//  270  *
//  271  * @param   none
//  272  *
//  273  * @return  none
//  274  */
//  275 void zclSampleSw_ProcessZDOMsgs( zdoIncomingMsg_t *inMsg )
//  276 {
//  277   switch ( inMsg->clusterID )
//  278   {
//  279     case End_Device_Bind_rsp:
//  280       if ( ZDO_ParseBindRsp( inMsg ) == ZSuccess )
//  281       {
//  282         // Light LED
//  283         //HalLedSet( HAL_LED_4, HAL_LED_MODE_ON );
//  284         osal_start_timerEx(zclSampleSw_TaskID, SAMPLESW_ONOFF_EVT, SAMPLESW_ONOFF_TIMEOUT); 
//  285       }
//  286   }
//  287 }
//  288 
//  289 /*********************************************************************
//  290  * @fn      zclSampleSw_HandleKeys
//  291  *
//  292  * @brief   Handles all key events for this device.
//  293  *
//  294  * @param   shift - true if in shift/alt.
//  295  * @param   keys - bit field for key events. Valid entries:
//  296  *                 HAL_KEY_SW_4
//  297  *                 HAL_KEY_SW_3
//  298  *                 HAL_KEY_SW_2
//  299  *                 HAL_KEY_SW_1
//  300  *
//  301  * @return  none
//  302  */
//  303 static void zclSampleSw_HandleKeys( byte shift, byte keys )
//  304 {
//  305   zAddrType_t dstAddr;
//  306   (void)shift;  // Intentionally unreferenced parameter
//  307 
//  308   if ( keys & HAL_KEY_SW_2 )
//  309   {
//  310     //HalLedSet ( HAL_LED_4, HAL_LED_MODE_OFF );
//  311 
//  312     // Initiate an End Device Bind Request, this bind request will
//  313     // only use a cluster list that is important to binding.
//  314     dstAddr.addrMode = afAddr16Bit;
//  315     dstAddr.addr.shortAddr = 0;   // Coordinator makes the match
//  316     ZDP_EndDeviceBindReq( &dstAddr, NLME_GetShortAddr(),
//  317                            SAMPLESW_ENDPOINT,
//  318                            ZCL_HA_PROFILE_ID,
//  319                            0, NULL,   // No incoming clusters to bind
//  320                            zclSampleSw_SimpleDesc.AppNumOutClusters, 
//  321                            zclSampleSw_SimpleDesc.pAppOutClusterList,
//  322                            TRUE );
//  323   }
//  324 }
//  325 
//  326 /*********************************************************************
//  327  * @fn      zclSampleSw_ProcessIdentifyTimeChange
//  328  *
//  329  * @brief   Called to process any change to the IdentifyTime attribute.
//  330  *
//  331  * @param   none
//  332  *
//  333  * @return  none
//  334  */
//  335 static void zclSampleSw_ProcessIdentifyTimeChange( void )
//  336 {
//  337   if ( zclSampleSw_IdentifyTime > 0 )
//  338   {
//  339    // osal_start_timerEx( zclSampleSw_TaskID, SAMPLESW_IDENTIFY_TIMEOUT_EVT, 1000 );
//  340     //HalLedBlink ( HAL_LED_4, 0xFF, HAL_LED_DEFAULT_DUTY_CYCLE, HAL_LED_DEFAULT_FLASH_TIME );
//  341     zclSampleSw_IdentifyTime--;
//  342   }
//  343   else
//  344   {
//  345     //if ( zclSampleSw_OnOff )
//  346      // HalLedSet ( HAL_LED_4, HAL_LED_MODE_ON );
//  347    // else
//  348      // HalLedSet ( HAL_LED_4, HAL_LED_MODE_OFF );
//  349     osal_start_timerEx( zclSampleSw_TaskID, SAMPLESW_IDENTIFY_TIMEOUT_EVT ,SAMPLESW_IDENTIFY_TIMEOUT);
//  350     zclSampleSw_IdentifyTime=2000; 
//  351   }
//  352 }
//  353 
//  354 /*********************************************************************
//  355  * @fn      zclSampleSw_BasicResetCB
//  356  *
//  357  * @brief   Callback from the ZCL General Cluster Library
//  358  *          to set all the Basic Cluster attributes to  default values.
//  359  *
//  360  * @param   none
//  361  *
//  362  * @return  none
//  363  */

        RSEG BANKED_CODE:CODE:NOROOT(0)
//  364 static void zclSampleSw_BasicResetCB( void )
zclSampleSw_BasicResetCB:
        CFI Block cfiBlock23 Using cfiCommon0
        CFI Function zclSampleSw_BasicResetCB
        CODE
//  365 {
        ; Saved register size: 0
        ; Auto size: 0
//  366 }
        LJMP    ?BRET
        CFI EndBlock cfiBlock23
//  367 
//  368 /*********************************************************************
//  369  * @fn      zclSampleSw_IdentifyCB
//  370  *
//  371  * @brief   Callback from the ZCL General Cluster Library when
//  372  *          it received an Identity Command for this application.
//  373  *
//  374  * @param   srcAddr - source address and endpoint of the response message
//  375  * @param   identifyTime - the number of seconds to identify yourself
//  376  *
//  377  * @return  none
//  378  */

        RSEG BANKED_CODE:CODE:NOROOT(0)
//  379 static void zclSampleSw_IdentifyCB( zclIdentify_t *pCmd )
zclSampleSw_IdentifyCB:
        CFI Block cfiBlock24 Using cfiCommon0
        CFI Function zclSampleSw_IdentifyCB
        CODE
//  380 {
        FUNCALL zclSampleSw_IdentifyCB, osal_start_timerEx
        LOCFRAME ISTACK, 2, STACK
        LOCFRAME PSTACK, 0, STACK
        LOCFRAME XSTACK, 0, STACK
        LOCFRAME IOVERLAY, 0, STATIC
        LOCFRAME DOVERLAY, 0, STATIC
        ARGFRAME ISTACK, 2, STACK
        ARGFRAME PSTACK, 0, STACK
        ARGFRAME XSTACK, 0, STACK
        ARGFRAME IOVERLAY, 0, STATIC
        ARGFRAME DOVERLAY, 0, STATIC
        PUSH    DPL
        CFI DPL0 Frame(CFA_SP, 4)
        CFI CFA_SP SP+-4
        PUSH    DPH
        CFI DPH0 Frame(CFA_SP, 5)
        CFI CFA_SP SP+-5
        ; Saved register size: 2
        ; Auto size: 0
//  381   zclSampleSw_IdentifyTime = pCmd->identifyTime;
        MOV     DPL,R2
        MOV     DPH,R3
        INC     DPTR
        INC     DPTR
        MOVX    A,@DPTR
        MOV     R0,A
        INC     DPTR
        MOVX    A,@DPTR
        MOV     R1,A
        MOV     DPTR,#zclSampleSw_IdentifyTime
        MOV     A,R0
        MOVX    @DPTR,A
        INC     DPTR
        MOV     A,R1
        MOVX    @DPTR,A
//  382   zclSampleSw_ProcessIdentifyTimeChange();
        MOV     A,R0
        ORL     A,R1
        JZ      ??zclSampleSw_IdentifyCB_0
        MOV     DPTR,#zclSampleSw_IdentifyTime
        MOVX    A,@DPTR
        ADD     A,#-0x1
        MOVX    @DPTR,A
        INC     DPTR
        MOVX    A,@DPTR
        ADDC    A,#-0x1
        SJMP    ??zclSampleSw_IdentifyCB_1
??zclSampleSw_IdentifyCB_0:
        ; Setup parameters for call to function osal_start_timerEx
        MOV     R4,#-0x30
        MOV     R5,#0x7
        MOV     R2,#0x2
        LCALL   ??Subroutine5_0 & 0xFFFF
??CrossCallReturnLabel_9:
        MOV     DPTR,#zclSampleSw_IdentifyTime
        MOV     A,#-0x30
        MOVX    @DPTR,A
        INC     DPTR
        MOV     A,#0x7
??zclSampleSw_IdentifyCB_1:
        MOVX    @DPTR,A
//  383 }
        POP     DPH
        CFI DPH0 SameValue
        CFI CFA_SP SP+-4
        POP     DPL
        CFI DPL0 SameValue
        CFI CFA_SP SP+-3
        LJMP    ?BRET
        CFI EndBlock cfiBlock24
//  384 
//  385 /*********************************************************************
//  386  * @fn      zclSampleSw_IdentifyQueryRspCB
//  387  *
//  388  * @brief   Callback from the ZCL General Cluster Library when
//  389  *          it received an Identity Query Response Command for this application.
//  390  *
//  391  * @param   srcAddr - source address
//  392  * @param   timeout - number of seconds to identify yourself (valid for query response)
//  393  *
//  394  * @return  none
//  395  */

        RSEG BANKED_CODE:CODE:NOROOT(0)
//  396 static void zclSampleSw_IdentifyQueryRspCB(  zclIdentifyQueryRsp_t *pRsp )
zclSampleSw_IdentifyQueryRspCB:
        CFI Block cfiBlock25 Using cfiCommon0
        CFI Function zclSampleSw_IdentifyQueryRspCB
        CODE
//  397 {
        ; Saved register size: 0
        ; Auto size: 0
//  398   // Query Response (with timeout value)
//  399   (void)pRsp;
//  400 }
        LJMP    ?BRET
        CFI EndBlock cfiBlock25

        RSEG XDATA_ID:CODE:NOROOT(0)
`?<Initializer for sampleSw_TestEp>`:
        DATA8
        DB 12
        DATA16
        DW zclSampleSw_TaskID
        DW zclSampleSw_SimpleDesc
        DATA8
        DB 0

        RSEG XDATA_ID:CODE:NOROOT(0)
`?<Initializer for zclSampleSw_CmdCallbacks>`:
        DATA16
        DW ??zclSampleSw_BasicResetCB?relay
        DW ??zclSampleSw_IdentifyCB?relay
        DW ??zclSampleSw_IdentifyQueryRspCB?relay
        DW 0H
        DW 0H
        DW 0H
        DW 0H
        DW 0H
        DW 0H
        DW 0H
        DW 0H
        DW 0H
        DW 0H
        DW 0H
        DB 0, 0

        RSEG BANK_RELAYS:CODE:REORDER:NOROOT(0)
??zclSampleSw_Init?relay:
        LCALL   ?BDISPATCH
        DATA
        DC24    zclSampleSw_Init

        RSEG BANK_RELAYS:CODE:REORDER:NOROOT(0)
??zclSampleSw_event_loop?relay:
        LCALL   ?BDISPATCH
        DATA
        DC24    zclSampleSw_event_loop

        RSEG BANK_RELAYS:CODE:REORDER:NOROOT(0)
??zclSampleSw_BasicResetCB?relay:
        LCALL   ?BDISPATCH
        DATA
        DC24    zclSampleSw_BasicResetCB

        RSEG BANK_RELAYS:CODE:REORDER:NOROOT(0)
??zclSampleSw_IdentifyCB?relay:
        LCALL   ?BDISPATCH
        DATA
        DC24    zclSampleSw_IdentifyCB

        RSEG BANK_RELAYS:CODE:REORDER:NOROOT(0)
??zclSampleSw_IdentifyQueryRspCB?relay:
        LCALL   ?BDISPATCH
        DATA
        DC24    zclSampleSw_IdentifyQueryRspCB

        RSEG XDATA_ROM_C:CONST:REORDER:NOROOT(0)
        DATA8
`?<Constant "change">`:
        DB "change"

        END
//  401 
//  402 /******************************************************************************
//  403  *
//  404  *  Functions for processing ZCL Foundation incoming Command/Response messages
//  405  *
//  406  *****************************************************************************/
//  407 
//  408 /*********************************************************************
//  409  * @fn      zclSampleSw_ProcessIncomingMsg
//  410  *
//  411  * @brief   Process ZCL Foundation incoming message
//  412  *
//  413  * @param   pInMsg - pointer to the received message
//  414  *
//  415  * @return  none
//  416  */
//  417 static void zclSampleSw_ProcessIncomingMsg( zclIncomingMsg_t *pInMsg )
//  418 {
//  419   switch ( pInMsg->zclHdr.commandID )
//  420   {
//  421 #ifdef ZCL_READ
//  422     case ZCL_CMD_READ_RSP:
//  423       zclSampleSw_ProcessInReadRspCmd( pInMsg );
//  424       break;
//  425 #endif
//  426 #ifdef ZCL_WRITE
//  427     case ZCL_CMD_WRITE_RSP:
//  428       zclSampleSw_ProcessInWriteRspCmd( pInMsg );
//  429       break;
//  430 #endif
//  431 #ifdef ZCL_REPORT
//  432     // See ZCL Test Applicaiton (zcl_testapp.c) for sample code on Attribute Reporting
//  433     case ZCL_CMD_CONFIG_REPORT:
//  434       //zclSampleSw_ProcessInConfigReportCmd( pInMsg );
//  435       break;
//  436 
//  437     case ZCL_CMD_CONFIG_REPORT_RSP:
//  438       //zclSampleSw_ProcessInConfigReportRspCmd( pInMsg );
//  439       break;
//  440 
//  441     case ZCL_CMD_READ_REPORT_CFG:
//  442       //zclSampleSw_ProcessInReadReportCfgCmd( pInMsg );
//  443       break;
//  444 
//  445     case ZCL_CMD_READ_REPORT_CFG_RSP:
//  446       //zclSampleSw_ProcessInReadReportCfgRspCmd( pInMsg );
//  447       break;
//  448 
//  449     case ZCL_CMD_REPORT:
//  450       //zclSampleSw_ProcessInReportCmd( pInMsg );
//  451       break;
//  452 #endif
//  453     case ZCL_CMD_DEFAULT_RSP:
//  454       zclSampleSw_ProcessInDefaultRspCmd( pInMsg );
//  455       break;
//  456 #ifdef ZCL_DISCOVER
//  457     case ZCL_CMD_DISCOVER_RSP:
//  458       zclSampleSw_ProcessInDiscRspCmd( pInMsg );
//  459       break;
//  460 #endif
//  461     default:
//  462       break;
//  463   }
//  464 
//  465   if ( pInMsg->attrCmd )
//  466     osal_mem_free( pInMsg->attrCmd );
//  467 }
//  468 
//  469 #ifdef ZCL_READ
//  470 /*********************************************************************
//  471  * @fn      zclSampleSw_ProcessInReadRspCmd
//  472  *
//  473  * @brief   Process the "Profile" Read Response Command
//  474  *
//  475  * @param   pInMsg - incoming message to process
//  476  *
//  477  * @return  none
//  478  */
//  479 static uint8 zclSampleSw_ProcessInReadRspCmd( zclIncomingMsg_t *pInMsg )
//  480 {
//  481   zclReadRspCmd_t *readRspCmd;
//  482   uint8 i;
//  483 
//  484   readRspCmd = (zclReadRspCmd_t *)pInMsg->attrCmd;
//  485   for (i = 0; i < readRspCmd->numAttr; i++)
//  486   {
//  487     // Notify the originator of the results of the original read attributes
//  488     // attempt and, for each successfull request, the value of the requested
//  489     // attribute
//  490   }
//  491 
//  492   return TRUE;
//  493 }
//  494 #endif // ZCL_READ
//  495 
//  496 #ifdef ZCL_WRITE
//  497 /*********************************************************************
//  498  * @fn      zclSampleSw_ProcessInWriteRspCmd
//  499  *
//  500  * @brief   Process the "Profile" Write Response Command
//  501  *
//  502  * @param   pInMsg - incoming message to process
//  503  *
//  504  * @return  none
//  505  */
//  506 static uint8 zclSampleSw_ProcessInWriteRspCmd( zclIncomingMsg_t *pInMsg )
//  507 {
//  508   zclWriteRspCmd_t *writeRspCmd;
//  509   uint8 i;
//  510 
//  511   writeRspCmd = (zclWriteRspCmd_t *)pInMsg->attrCmd;
//  512   for (i = 0; i < writeRspCmd->numAttr; i++)
//  513   {
//  514     // Notify the device of the results of the its original write attributes
//  515     // command.
//  516   }
//  517 
//  518   return TRUE;
//  519 }
//  520 #endif // ZCL_WRITE
//  521 
//  522 /*********************************************************************
//  523  * @fn      zclSampleSw_ProcessInDefaultRspCmd
//  524  *
//  525  * @brief   Process the "Profile" Default Response Command
//  526  *
//  527  * @param   pInMsg - incoming message to process
//  528  *
//  529  * @return  none
//  530  */
//  531 static uint8 zclSampleSw_ProcessInDefaultRspCmd( zclIncomingMsg_t *pInMsg )
//  532 {
//  533   // zclDefaultRspCmd_t *defaultRspCmd = (zclDefaultRspCmd_t *)pInMsg->attrCmd;
//  534   // Device is notified of the Default Response command.
//  535   (void)pInMsg;
//  536   return TRUE;
//  537 }
//  538 
//  539 #ifdef ZCL_DISCOVER
//  540 /*********************************************************************
//  541  * @fn      zclSampleSw_ProcessInDiscRspCmd
//  542  *
//  543  * @brief   Process the "Profile" Discover Response Command
//  544  *
//  545  * @param   pInMsg - incoming message to process
//  546  *
//  547  * @return  none
//  548  */
//  549 static uint8 zclSampleSw_ProcessInDiscRspCmd( zclIncomingMsg_t *pInMsg )
//  550 {
//  551   zclDiscoverRspCmd_t *discoverRspCmd;
//  552   uint8 i;
//  553 
//  554   discoverRspCmd = (zclDiscoverRspCmd_t *)pInMsg->attrCmd;
//  555   for ( i = 0; i < discoverRspCmd->numAttr; i++ )
//  556   {
//  557     // Device is notified of the result of its attribute discovery command.
//  558   }
//  559 
//  560   return TRUE;
//  561 }
//  562 #endif // ZCL_DISCOVER
//  563 
//  564 
//  565 /****************************************************************************
//  566 ****************************************************************************/
//  567 
//  568 
// 
// 854 bytes in segment BANKED_CODE
//  30 bytes in segment BANK_RELAYS
//  36 bytes in segment XDATA_I
//  36 bytes in segment XDATA_ID
//   7 bytes in segment XDATA_ROM_C
//  15 bytes in segment XDATA_Z
// 
// 920 bytes of CODE  memory
//   7 bytes of CONST memory
//  51 bytes of XDATA memory
//
//Errors: none
//Warnings: none
