///////////////////////////////////////////////////////////////////////////////
//                                                                            /
// IAR C/C++ Compiler V8.10.3.10338/W32 for 8051        08/Nov/2016  11:44:02 /
// Copyright 2004-2011 IAR Systems AB.                                        /
//                                                                            /
//    Core               =  plain                                             /
//    Code model         =  banked                                            /
//    Data model         =  large                                             /
//    Calling convention =  xdata reentrant                                   /
//    Constant location  =  data_rom                                          /
//    Dptr setup         =  1,16                                              /
//    Source file        =  E:\gitshell\ZigBee\ZBStudy\Projects\zstack\HomeAu /
//                          tomation\SampleLight\Source\zcl_samplelight.c     /
//    Command line       =  -f E:\gitshell\ZigBee\ZBStudy\Projects\zstack\Hom /
//                          eAutomation\SampleLight\CC2530DB\..\..\..\Tools\C /
//                          C2530DB\f8wRouter.cfg (-DCPU32MHZ                 /
//                          -DROOT=__near_func -DMAC_CFG_APP_PENDING_QUEUE=TR /
//                          UE -DMAC_CFG_TX_DATA_MAX=5 -DMAC_CFG_TX_MAX=8     /
//                          -DMAC_CFG_RX_MAX=5 -DRTR_NWK) -f                  /
//                          E:\gitshell\ZigBee\ZBStudy\Projects\zstack\HomeAu /
//                          tomation\SampleLight\CC2530DB\..\..\..\Tools\CC25 /
//                          30DB\f8wConfig.cfg (-DZIGBEEPRO -DSECURE=0        /
//                          -DZG_SECURE_DYNAMIC=0 -DREFLECTOR                 /
//                          -DDEFAULT_CHANLIST=0x00000800                     /
//                          -DZDAPP_CONFIG_PAN_ID=0xFFF2                      /
//                          -DNWK_START_DELAY=100 -DEXTENDED_JOINING_RANDOM_M /
//                          ASK=0x007F -DBEACON_REQUEST_DELAY=100             /
//                          -DBEACON_REQ_DELAY_MASK=0x00FF                    /
//                          -DLINK_STATUS_JITTER_MASK=0x007F                  /
//                          -DROUTE_EXPIRY_TIME=30 -DAPSC_ACK_WAIT_DURATION_P /
//                          OLLED=3000 -DNWK_INDIRECT_MSG_TIMEOUT=7           /
//                          -DMAX_RREQ_ENTRIES=8 -DAPSC_MAX_FRAME_RETRIES=3   /
//                          -DNWK_MAX_DATA_RETRIES=2                          /
//                          -DMAX_POLL_FAILURE_RETRIES=2 -DMAX_BCAST=9        /
//                          -DAPS_MAX_GROUPS=16 -DMAX_RTG_ENTRIES=40          /
//                          -DNWK_MAX_BINDING_ENTRIES=4                       /
//                          -DMAX_BINDING_CLUSTER_IDS=4                       /
//                          "-DDEFAULT_KEY={0x01, 0x03, 0x05, 0x07, 0x09,     /
//                          0x0B, 0x0D, 0x0F, 0x00, 0x02, 0x04, 0x06, 0x08,   /
//                          0x0A, 0x0C, 0x0D}" -DMAC_MAX_FRAME_SIZE=116       /
//                          -DZDNWKMGR_MIN_TRANSMISSIONS=20 "-DCONST=const    /
//                          __code" -DGENERIC=__generic                       /
//                          -DRFD_RCVC_ALWAYS_ON=FALSE -DPOLL_RATE=1000       /
//                          -DQUEUED_POLL_RATE=100 -DRESPONSE_POLL_RATE=100   /
//                          -DREJOIN_POLL_RATE=440) -f                        /
//                          E:\gitshell\ZigBee\ZBStudy\Projects\zstack\HomeAu /
//                          tomation\SampleLight\CC2530DB\..\..\..\Tools\CC25 /
//                          30DB\f8wZCL.cfg (-DZCL_READ -DZCL_WRITE           /
//                          -DZCL_BASIC -DZCL_IDENTIFY -DZCL_ON_OFF           /
//                          -DZCL_KEY_ESTABLISH -DZCL_KEY_ESTABLISHMENT_KEY_G /
//                          ENERATE_TIMEOUT=4 -DZCL_KEY_ESTABLISHMENT_MAC_GEN /
//                          ERATE_TIMEOUT=10 -DZCL_KEY_ESTABLISHMENT_EKEY_GEN /
//                          ERATE_TIMEOUT=10 -DZCL_LOAD_CONTROL               /
//                          -DZCL_SIMPLE_METERING -DZCL_PRICING               /
//                          -DZCL_MESSAGE -DZCL_TUNNELING -DZCL_TOU)          /
//                          -DZCL_DEVICE_MGMT E:\gitshell\ZigBee\ZBStudy\Proj /
//                          ects\zstack\HomeAutomation\SampleLight\Source\zcl /
//                          _samplelight.c -D ZTOOL_P1 -D MT_TASK -D          /
//                          MT_APP_FUNC -D MT_SYS_FUNC -D MT_ZDO_FUNC -D      /
//                          LCD_SUPPORTED=DEBUG -lC                           /
//                          E:\gitshell\ZigBee\ZBStudy\Projects\zstack\HomeAu /
//                          tomation\SampleLight\CC2530DB\RouterEB\List\ -lA  /
//                          E:\gitshell\ZigBee\ZBStudy\Projects\zstack\HomeAu /
//                          tomation\SampleLight\CC2530DB\RouterEB\List\      /
//                          --diag_suppress Pe001,Pa010 -o                    /
//                          E:\gitshell\ZigBee\ZBStudy\Projects\zstack\HomeAu /
//                          tomation\SampleLight\CC2530DB\RouterEB\Obj\ -e    /
//                          --no_code_motion --debug --core=plain             /
//                          --dptr=16,1 --data_model=large                    /
//                          --code_model=banked --calling_convention=xdata_re /
//                          entrant --place_constants=data_rom                /
//                          --nr_virtual_regs 16 -I                           /
//                          E:\gitshell\ZigBee\ZBStudy\Projects\zstack\HomeAu /
//                          tomation\SampleLight\CC2530DB\ -I                 /
//                          E:\gitshell\ZigBee\ZBStudy\Projects\zstack\HomeAu /
//                          tomation\SampleLight\CC2530DB\..\Source\ -I       /
//                          E:\gitshell\ZigBee\ZBStudy\Projects\zstack\HomeAu /
//                          tomation\SampleLight\CC2530DB\..\..\Source\ -I    /
//                          E:\gitshell\ZigBee\ZBStudy\Projects\zstack\HomeAu /
//                          tomation\SampleLight\CC2530DB\..\..\..\ZMain\TI25 /
//                          30DB\ -I E:\gitshell\ZigBee\ZBStudy\Projects\zsta /
//                          ck\HomeAutomation\SampleLight\CC2530DB\..\..\..\. /
//                          .\..\Components\hal\include\ -I                   /
//                          E:\gitshell\ZigBee\ZBStudy\Projects\zstack\HomeAu /
//                          tomation\SampleLight\CC2530DB\..\..\..\..\..\Comp /
//                          onents\hal\target\CC2530EB\ -I                    /
//                          E:\gitshell\ZigBee\ZBStudy\Projects\zstack\HomeAu /
//                          tomation\SampleLight\CC2530DB\..\..\..\..\..\Comp /
//                          onents\mac\include\ -I E:\gitshell\ZigBee\ZBStudy /
//                          \Projects\zstack\HomeAutomation\SampleLight\CC253 /
//                          0DB\..\..\..\..\..\Components\mac\high_level\ -I  /
//                          E:\gitshell\ZigBee\ZBStudy\Projects\zstack\HomeAu /
//                          tomation\SampleLight\CC2530DB\..\..\..\..\..\Comp /
//                          onents\mac\low_level\srf04\ -I                    /
//                          E:\gitshell\ZigBee\ZBStudy\Projects\zstack\HomeAu /
//                          tomation\SampleLight\CC2530DB\..\..\..\..\..\Comp /
//                          onents\mac\low_level\srf04\single_chip\ -I        /
//                          E:\gitshell\ZigBee\ZBStudy\Projects\zstack\HomeAu /
//                          tomation\SampleLight\CC2530DB\..\..\..\..\..\Comp /
//                          onents\mt\ -I E:\gitshell\ZigBee\ZBStudy\Projects /
//                          \zstack\HomeAutomation\SampleLight\CC2530DB\..\.. /
//                          \..\..\..\Components\osal\include\ -I             /
//                          E:\gitshell\ZigBee\ZBStudy\Projects\zstack\HomeAu /
//                          tomation\SampleLight\CC2530DB\..\..\..\..\..\Comp /
//                          onents\services\saddr\ -I                         /
//                          E:\gitshell\ZigBee\ZBStudy\Projects\zstack\HomeAu /
//                          tomation\SampleLight\CC2530DB\..\..\..\..\..\Comp /
//                          onents\services\sdata\ -I                         /
//                          E:\gitshell\ZigBee\ZBStudy\Projects\zstack\HomeAu /
//                          tomation\SampleLight\CC2530DB\..\..\..\..\..\Comp /
//                          onents\stack\af\ -I E:\gitshell\ZigBee\ZBStudy\Pr /
//                          ojects\zstack\HomeAutomation\SampleLight\CC2530DB /
//                          \..\..\..\..\..\Components\stack\nwk\ -I          /
//                          E:\gitshell\ZigBee\ZBStudy\Projects\zstack\HomeAu /
//                          tomation\SampleLight\CC2530DB\..\..\..\..\..\Comp /
//                          onents\stack\sapi\ -I E:\gitshell\ZigBee\ZBStudy\ /
//                          Projects\zstack\HomeAutomation\SampleLight\CC2530 /
//                          DB\..\..\..\..\..\Components\stack\sec\ -I        /
//                          E:\gitshell\ZigBee\ZBStudy\Projects\zstack\HomeAu /
//                          tomation\SampleLight\CC2530DB\..\..\..\..\..\Comp /
//                          onents\stack\sys\ -I E:\gitshell\ZigBee\ZBStudy\P /
//                          rojects\zstack\HomeAutomation\SampleLight\CC2530D /
//                          B\..\..\..\..\..\Components\stack\zcl\ -I         /
//                          E:\gitshell\ZigBee\ZBStudy\Projects\zstack\HomeAu /
//                          tomation\SampleLight\CC2530DB\..\..\..\..\..\Comp /
//                          onents\stack\zdo\ -I E:\gitshell\ZigBee\ZBStudy\P /
//                          rojects\zstack\HomeAutomation\SampleLight\CC2530D /
//                          B\..\..\..\..\..\Components\zmac\ -I              /
//                          E:\gitshell\ZigBee\ZBStudy\Projects\zstack\HomeAu /
//                          tomation\SampleLight\CC2530DB\..\..\..\..\..\Comp /
//                          onents\zmac\f8w\ -Ohz --require_prototypes        /
//    List file          =  E:\gitshell\ZigBee\ZBStudy\Projects\zstack\HomeAu /
//                          tomation\SampleLight\CC2530DB\RouterEB\List\zcl_s /
//                          amplelight.s51                                    /
//                                                                            /
//                                                                            /
///////////////////////////////////////////////////////////////////////////////

        NAME zcl_samplelight

        RTMODEL "__SystemLibrary", "CLib"
        RTMODEL "__calling_convention", "xdata_reentrant"
        RTMODEL "__code_model", "banked"
        RTMODEL "__core", "plain"
        RTMODEL "__data_model", "large"
        RTMODEL "__dptr_size", "16"
        RTMODEL "__extended_stack", "disabled"
        RTMODEL "__location_for_constants", "data"
        RTMODEL "__number_of_dptrs", "1"
        RTMODEL "__rt_version", "1"

        RSEG DOVERLAY:DATA:NOROOT(0)
        RSEG IOVERLAY:IDATA:NOROOT(0)
        RSEG ISTACK:IDATA:NOROOT(0)
        RSEG PSTACK:XDATA:NOROOT(0)
        RSEG XSTACK:XDATA:NOROOT(0)

        EXTERN ?ALLOC_XSTACK8
        EXTERN ?BANKED_ENTER_XDATA
        EXTERN ?BANKED_LEAVE_XDATA
        EXTERN ?BDISPATCH
        EXTERN ?BRET
        EXTERN ?DEALLOC_XSTACK8
        EXTERN ?PUSH_XSTACK8_X_TWO
        EXTERN ?PUSH_XSTACK_I_ONE
        EXTERN ?PUSH_XSTACK_I_TWO
        EXTERN ?V0
        EXTERN ?XSP
        EXTERN ?XSTACK_DISP0_8
        EXTERN __INIT_XDATA_I
        EXTERN __INIT_XDATA_Z

        FUNCTION ??zclSampleLight_BasicResetCB?relay,0203H
        FUNCTION ??zclSampleLight_IdentifyCB?relay,0203H
        FUNCTION ??zclSampleLight_IdentifyQueryRspCB?relay,0203H
        PUBLIC ??zclSampleLight_Init?relay
        FUNCTION ??zclSampleLight_Init?relay,0203H
        FUNCTION ??zclSampleLight_OnOffCB?relay,0203H
        PUBLIC ??zclSampleLight_event_loop?relay
        FUNCTION ??zclSampleLight_event_loop?relay,0203H
        FUNCTION zclSampleLight_BasicResetCB,0603H
        ARGFRAME XSTACK, 0, STACK
        FUNCTION zclSampleLight_IdentifyCB,021603H
        ARGFRAME XSTACK, 0, STACK
        LOCFRAME ISTACK, 2, STACK
        FUNCTION zclSampleLight_IdentifyQueryRspCB,0603H
        ARGFRAME XSTACK, 0, STACK
        PUBLIC zclSampleLight_Init
        FUNCTION zclSampleLight_Init,021203H
        ARGFRAME XSTACK, 0, STACK
        LOCFRAME XSTACK, 9, STACK
        FUNCTION zclSampleLight_OnOffCB,021603H
        ARGFRAME XSTACK, 0, STACK
        LOCFRAME XSTACK, 9, STACK
        PUBLIC zclSampleLight_TaskID
        PUBLIC zclSampleLight_event_loop
        FUNCTION zclSampleLight_event_loop,021203H
        ARGFRAME XSTACK, 0, STACK
        LOCFRAME XSTACK, 30, STACK
        
        CFI Names cfiNames0
        CFI StackFrame CFA_SP SP IDATA
        CFI StackFrame CFA_PSP16 PSP16 XDATA
        CFI StackFrame CFA_XSP16 XSP16 XDATA
        CFI StaticOverlayFrame CFA_IOVERLAY IOVERLAY
        CFI StaticOverlayFrame CFA_DOVERLAY DOVERLAY
        CFI Resource `PSW.CY`:1, `B.BR0`:1, `B.BR1`:1, `B.BR2`:1, `B.BR3`:1
        CFI Resource `B.BR4`:1, `B.BR5`:1, `B.BR6`:1, `B.BR7`:1, `VB.BR8`:1
        CFI Resource `VB.BR9`:1, `VB.BR10`:1, `VB.BR11`:1, `VB.BR12`:1
        CFI Resource `VB.BR13`:1, `VB.BR14`:1, `VB.BR15`:1, VB:8, B:8, A:8
        CFI Resource PSW:8, DPL0:8, DPH0:8, R0:8, R1:8, R2:8, R3:8, R4:8, R5:8
        CFI Resource R6:8, R7:8, V0:8, V1:8, V2:8, V3:8, V4:8, V5:8, V6:8, V7:8
        CFI Resource V8:8, V9:8, V10:8, V11:8, V12:8, V13:8, V14:8, V15:8, SP:8
        CFI Resource PSPH:8, PSPL:8, PSP16:16, XSPH:8, XSPL:8, XSP16:16
        CFI VirtualResource ?RET:24
        CFI Resource ?BRET_EXT:8
        CFI VirtualResource ?RET_HIGH:8, ?RET_LOW:8
        CFI ResourceParts PSP16 PSPH, PSPL
        CFI ResourceParts XSP16 XSPH, XSPL
        CFI ResourceParts ?RET ?BRET_EXT, ?RET_HIGH, ?RET_LOW
        CFI EndNames cfiNames0
        
        CFI Common cfiCommon0 Using cfiNames0
        CFI CodeAlign 1
        CFI DataAlign -1
        CFI ReturnAddress ?RET CODE
        CFI CFA_DOVERLAY Used
        CFI CFA_IOVERLAY Used
        CFI CFA_SP SP+-3
        CFI CFA_PSP16 PSP16+0
        CFI CFA_XSP16 XSP16+0
        CFI `PSW.CY` SameValue
        CFI `B.BR0` SameValue
        CFI `B.BR1` SameValue
        CFI `B.BR2` SameValue
        CFI `B.BR3` SameValue
        CFI `B.BR4` SameValue
        CFI `B.BR5` SameValue
        CFI `B.BR6` SameValue
        CFI `B.BR7` SameValue
        CFI `VB.BR8` SameValue
        CFI `VB.BR9` SameValue
        CFI `VB.BR10` SameValue
        CFI `VB.BR11` SameValue
        CFI `VB.BR12` SameValue
        CFI `VB.BR13` SameValue
        CFI `VB.BR14` SameValue
        CFI `VB.BR15` SameValue
        CFI VB SameValue
        CFI B Undefined
        CFI A Undefined
        CFI PSW SameValue
        CFI DPL0 SameValue
        CFI DPH0 SameValue
        CFI R0 Undefined
        CFI R1 Undefined
        CFI R2 Undefined
        CFI R3 Undefined
        CFI R4 Undefined
        CFI R5 Undefined
        CFI R6 SameValue
        CFI R7 SameValue
        CFI V0 SameValue
        CFI V1 SameValue
        CFI V2 SameValue
        CFI V3 SameValue
        CFI V4 SameValue
        CFI V5 SameValue
        CFI V6 SameValue
        CFI V7 SameValue
        CFI V8 SameValue
        CFI V9 SameValue
        CFI V10 SameValue
        CFI V11 SameValue
        CFI V12 SameValue
        CFI V13 SameValue
        CFI V14 SameValue
        CFI V15 SameValue
        CFI PSPH Undefined
        CFI PSPL Undefined
        CFI XSPH Undefined
        CFI XSPL Undefined
        CFI ?RET Concat
        CFI ?BRET_EXT Frame(CFA_SP, 3)
        CFI ?RET_HIGH Frame(CFA_SP, 2)
        CFI ?RET_LOW Frame(CFA_SP, 1)
        CFI EndCommon cfiCommon0
        
        
        CFI Common cfiCommon1 Using cfiNames0
        CFI CodeAlign 1
        CFI DataAlign -1
        CFI ReturnAddress ?RET CODE
        CFI CFA_DOVERLAY Used
        CFI CFA_IOVERLAY Used
        CFI CFA_SP SP+-2
        CFI CFA_PSP16 PSP16+0
        CFI CFA_XSP16 XSP16+0
        CFI `PSW.CY` SameValue
        CFI `B.BR0` SameValue
        CFI `B.BR1` SameValue
        CFI `B.BR2` SameValue
        CFI `B.BR3` SameValue
        CFI `B.BR4` SameValue
        CFI `B.BR5` SameValue
        CFI `B.BR6` SameValue
        CFI `B.BR7` SameValue
        CFI `VB.BR8` SameValue
        CFI `VB.BR9` SameValue
        CFI `VB.BR10` SameValue
        CFI `VB.BR11` SameValue
        CFI `VB.BR12` SameValue
        CFI `VB.BR13` SameValue
        CFI `VB.BR14` SameValue
        CFI `VB.BR15` SameValue
        CFI VB SameValue
        CFI B SameValue
        CFI A SameValue
        CFI PSW SameValue
        CFI DPL0 SameValue
        CFI DPH0 SameValue
        CFI R0 SameValue
        CFI R1 SameValue
        CFI R2 SameValue
        CFI R3 SameValue
        CFI R4 SameValue
        CFI R5 SameValue
        CFI R6 SameValue
        CFI R7 SameValue
        CFI V0 SameValue
        CFI V1 SameValue
        CFI V2 SameValue
        CFI V3 SameValue
        CFI V4 SameValue
        CFI V5 SameValue
        CFI V6 SameValue
        CFI V7 SameValue
        CFI V8 SameValue
        CFI V9 SameValue
        CFI V10 SameValue
        CFI V11 SameValue
        CFI V12 SameValue
        CFI V13 SameValue
        CFI V14 SameValue
        CFI V15 SameValue
        CFI PSPH Undefined
        CFI PSPL Undefined
        CFI XSPH Undefined
        CFI XSPL Undefined
        CFI ?RET Concat
        CFI ?BRET_EXT SameValue
        CFI ?RET_HIGH Frame(CFA_SP, 2)
        CFI ?RET_LOW Frame(CFA_SP, 1)
        CFI EndCommon cfiCommon1
        
zclHA_Init          SYMBOL "zclHA_Init"
zclGeneral_RegisterCmdCallbacks SYMBOL "zclGeneral_RegisterCmdCallbacks"
zcl_registerAttrList SYMBOL "zcl_registerAttrList"
zcl_registerForMsg  SYMBOL "zcl_registerForMsg"
RegisterForKeys     SYMBOL "RegisterForKeys"
afRegister          SYMBOL "afRegister"
ZDO_RegisterForZDOMsg SYMBOL "ZDO_RegisterForZDOMsg"
NLME_GetShortAddr   SYMBOL "NLME_GetShortAddr"
ZDP_EndDeviceBindReq SYMBOL "ZDP_EndDeviceBindReq"
osal_msg_deallocate SYMBOL "osal_msg_deallocate"
osal_msg_receive    SYMBOL "osal_msg_receive"
HalLedSet           SYMBOL "HalLedSet"
osal_mem_free       SYMBOL "osal_mem_free"
HalLedBlink         SYMBOL "HalLedBlink"
??HalLedBlink?relay SYMBOL "?relay", HalLedBlink
??HalLedSet?relay   SYMBOL "?relay", HalLedSet
??NLME_GetShortAddr?relay SYMBOL "?relay", NLME_GetShortAddr
??RegisterForKeys?relay SYMBOL "?relay", RegisterForKeys
??ZDO_RegisterForZDOMsg?relay SYMBOL "?relay", ZDO_RegisterForZDOMsg
??ZDP_EndDeviceBindReq?relay SYMBOL "?relay", ZDP_EndDeviceBindReq
??afRegister?relay  SYMBOL "?relay", afRegister
??osal_mem_free?relay SYMBOL "?relay", osal_mem_free
??osal_msg_deallocate?relay SYMBOL "?relay", osal_msg_deallocate
??osal_msg_receive?relay SYMBOL "?relay", osal_msg_receive
??zclGeneral_RegisterCmdCallbacks?relay SYMBOL "?relay", zclGeneral_RegisterCmdCallbacks
??zclHA_Init?relay  SYMBOL "?relay", zclHA_Init
??zcl_registerAttrList?relay SYMBOL "?relay", zcl_registerAttrList
??zcl_registerForMsg?relay SYMBOL "?relay", zcl_registerForMsg
zclSampleLight_Init SYMBOL "zclSampleLight_Init"
??zclSampleLight_Init?relay SYMBOL "?relay", zclSampleLight_Init
zclSampleLight_event_loop SYMBOL "zclSampleLight_event_loop"
??zclSampleLight_event_loop?relay SYMBOL "?relay", zclSampleLight_event_loop

        EXTERN zclHA_Init
        FUNCTION zclHA_Init,0202H
        ARGFRAME ISTACK, 0, STACK
        ARGFRAME PSTACK, 0, STACK
        ARGFRAME XSTACK, 9, STACK
        ARGFRAME IOVERLAY, 0, STATIC
        ARGFRAME DOVERLAY, 0, STATIC
        EXTERN zclGeneral_RegisterCmdCallbacks
        FUNCTION zclGeneral_RegisterCmdCallbacks,0202H
        ARGFRAME ISTACK, 0, STACK
        ARGFRAME PSTACK, 0, STACK
        ARGFRAME XSTACK, 9, STACK
        ARGFRAME IOVERLAY, 0, STATIC
        ARGFRAME DOVERLAY, 0, STATIC
        EXTERN zcl_registerAttrList
        FUNCTION zcl_registerAttrList,0202H
        ARGFRAME ISTACK, 0, STACK
        ARGFRAME PSTACK, 0, STACK
        ARGFRAME XSTACK, 9, STACK
        ARGFRAME IOVERLAY, 0, STATIC
        ARGFRAME DOVERLAY, 0, STATIC
        EXTERN zcl_registerForMsg
        FUNCTION zcl_registerForMsg,0202H
        ARGFRAME ISTACK, 0, STACK
        ARGFRAME PSTACK, 0, STACK
        ARGFRAME XSTACK, 9, STACK
        ARGFRAME IOVERLAY, 0, STATIC
        ARGFRAME DOVERLAY, 0, STATIC
        EXTERN RegisterForKeys
        FUNCTION RegisterForKeys,0202H
        ARGFRAME ISTACK, 0, STACK
        ARGFRAME PSTACK, 0, STACK
        ARGFRAME XSTACK, 9, STACK
        ARGFRAME IOVERLAY, 0, STATIC
        ARGFRAME DOVERLAY, 0, STATIC
        EXTERN afRegister
        FUNCTION afRegister,0202H
        ARGFRAME ISTACK, 0, STACK
        ARGFRAME PSTACK, 0, STACK
        ARGFRAME XSTACK, 9, STACK
        ARGFRAME IOVERLAY, 0, STATIC
        ARGFRAME DOVERLAY, 0, STATIC
        EXTERN ZDO_RegisterForZDOMsg
        FUNCTION ZDO_RegisterForZDOMsg,0202H
        ARGFRAME ISTACK, 0, STACK
        ARGFRAME PSTACK, 0, STACK
        ARGFRAME XSTACK, 9, STACK
        ARGFRAME IOVERLAY, 0, STATIC
        ARGFRAME DOVERLAY, 0, STATIC
        EXTERN NLME_GetShortAddr
        FUNCTION NLME_GetShortAddr,0202H
        ARGFRAME ISTACK, 0, STACK
        ARGFRAME PSTACK, 0, STACK
        ARGFRAME XSTACK, 21, STACK
        ARGFRAME IOVERLAY, 0, STATIC
        ARGFRAME DOVERLAY, 0, STATIC
        EXTERN ZDP_EndDeviceBindReq
        FUNCTION ZDP_EndDeviceBindReq,0202H
        ARGFRAME ISTACK, 0, STACK
        ARGFRAME PSTACK, 0, STACK
        ARGFRAME XSTACK, 30, STACK
        ARGFRAME IOVERLAY, 0, STATIC
        ARGFRAME DOVERLAY, 0, STATIC
        EXTERN osal_msg_deallocate
        FUNCTION osal_msg_deallocate,0202H
        ARGFRAME ISTACK, 0, STACK
        ARGFRAME PSTACK, 0, STACK
        ARGFRAME XSTACK, 21, STACK
        ARGFRAME IOVERLAY, 0, STATIC
        ARGFRAME DOVERLAY, 0, STATIC
        EXTERN osal_msg_receive
        FUNCTION osal_msg_receive,0202H
        ARGFRAME ISTACK, 0, STACK
        ARGFRAME PSTACK, 0, STACK
        ARGFRAME XSTACK, 21, STACK
        ARGFRAME IOVERLAY, 0, STATIC
        ARGFRAME DOVERLAY, 0, STATIC
        EXTERN HalLedSet
        FUNCTION HalLedSet,0202H
        ARGFRAME ISTACK, 2, STACK
        ARGFRAME PSTACK, 0, STACK
        ARGFRAME XSTACK, 21, STACK
        ARGFRAME IOVERLAY, 0, STATIC
        ARGFRAME DOVERLAY, 0, STATIC
        EXTERN osal_mem_free
        FUNCTION osal_mem_free,0202H
        ARGFRAME ISTACK, 0, STACK
        ARGFRAME PSTACK, 0, STACK
        ARGFRAME XSTACK, 21, STACK
        ARGFRAME IOVERLAY, 0, STATIC
        ARGFRAME DOVERLAY, 0, STATIC
        EXTERN HalLedBlink
        FUNCTION HalLedBlink,0202H
        ARGFRAME ISTACK, 2, STACK
        ARGFRAME PSTACK, 0, STACK
        ARGFRAME XSTACK, 0, STACK
        ARGFRAME IOVERLAY, 0, STATIC
        ARGFRAME DOVERLAY, 0, STATIC
        EXTERN ??HalLedBlink?relay
        FUNCTION ??HalLedBlink?relay,00H
        EXTERN ??HalLedSet?relay
        FUNCTION ??HalLedSet?relay,00H
        EXTERN ??NLME_GetShortAddr?relay
        FUNCTION ??NLME_GetShortAddr?relay,00H
        EXTERN ??RegisterForKeys?relay
        FUNCTION ??RegisterForKeys?relay,00H
        EXTERN ??ZDO_RegisterForZDOMsg?relay
        FUNCTION ??ZDO_RegisterForZDOMsg?relay,00H
        EXTERN ??ZDP_EndDeviceBindReq?relay
        FUNCTION ??ZDP_EndDeviceBindReq?relay,00H
        EXTERN ??afRegister?relay
        FUNCTION ??afRegister?relay,00H
        EXTERN ??osal_mem_free?relay
        FUNCTION ??osal_mem_free?relay,00H
        EXTERN ??osal_msg_deallocate?relay
        FUNCTION ??osal_msg_deallocate?relay,00H
        EXTERN ??osal_msg_receive?relay
        FUNCTION ??osal_msg_receive?relay,00H
        EXTERN ??zclGeneral_RegisterCmdCallbacks?relay
        FUNCTION ??zclGeneral_RegisterCmdCallbacks?relay,00H
        EXTERN ??zclHA_Init?relay
        FUNCTION ??zclHA_Init?relay,00H
        EXTERN ??zcl_registerAttrList?relay
        FUNCTION ??zcl_registerAttrList?relay,00H
        EXTERN ??zcl_registerForMsg?relay
        FUNCTION ??zcl_registerForMsg?relay,00H
        EXTERN zclSampleLight_Attrs
        EXTERN zclSampleLight_IdentifyTime
        EXTERN zclSampleLight_OnOff
        EXTERN zclSampleLight_SimpleDesc

// E:\gitshell\ZigBee\ZBStudy\Projects\zstack\HomeAutomation\SampleLight\Source\zcl_samplelight.c
//    1 /**************************************************************************************************
//    2   Filename:       zcl_sampleLight.c
//    3   Revised:        $Date: 2009-03-18 15:56:27 -0700 (Wed, 18 Mar 2009) $
//    4   Revision:       $Revision: 19453 $
//    5 
//    6 
//    7   Description:    Zigbee Cluster Library - sample device application.
//    8 
//    9 
//   10   Copyright 2006-2009 Texas Instruments Incorporated. All rights reserved.
//   11 
//   12   IMPORTANT: Your use of this Software is limited to those specific rights
//   13   granted under the terms of a software license agreement between the user
//   14   who downloaded the software, his/her employer (which must be your employer)
//   15   and Texas Instruments Incorporated (the "License").  You may not use this
//   16   Software unless you agree to abide by the terms of the License. The License
//   17   limits your use, and you acknowledge, that the Software may not be modified,
//   18   copied or distributed unless embedded on a Texas Instruments microcontroller
//   19   or used solely and exclusively in conjunction with a Texas Instruments radio
//   20   frequency transceiver, which is integrated into your product.  Other than for
//   21   the foregoing purpose, you may not use, reproduce, copy, prepare derivative
//   22   works of, modify, distribute, perform, display or sell this Software and/or
//   23   its documentation for any purpose.
//   24 
//   25   YOU FURTHER ACKNOWLEDGE AND AGREE THAT THE SOFTWARE AND DOCUMENTATION ARE
//   26   PROVIDED “AS IS?WITHOUT WARRANTY OF ANY KIND, EITHER EXPRESS OR IMPLIED, 
//   27   INCLUDING WITHOUT LIMITATION, ANY WARRANTY OF MERCHANTABILITY, TITLE, 
//   28   NON-INFRINGEMENT AND FITNESS FOR A PARTICULAR PURPOSE. IN NO EVENT SHALL
//   29   TEXAS INSTRUMENTS OR ITS LICENSORS BE LIABLE OR OBLIGATED UNDER CONTRACT,
//   30   NEGLIGENCE, STRICT LIABILITY, CONTRIBUTION, BREACH OF WARRANTY, OR OTHER
//   31   LEGAL EQUITABLE THEORY ANY DIRECT OR INDIRECT DAMAGES OR EXPENSES
//   32   INCLUDING BUT NOT LIMITED TO ANY INCIDENTAL, SPECIAL, INDIRECT, PUNITIVE
//   33   OR CONSEQUENTIAL DAMAGES, LOST PROFITS OR LOST DATA, COST OF PROCUREMENT
//   34   OF SUBSTITUTE GOODS, TECHNOLOGY, SERVICES, OR ANY CLAIMS BY THIRD PARTIES
//   35   (INCLUDING BUT NOT LIMITED TO ANY DEFENSE THEREOF), OR OTHER SIMILAR COSTS.
//   36 
//   37   Should you have any questions regarding your right to use this Software,
//   38   contact Texas Instruments Incorporated at www.TI.com. 
//   39 **************************************************************************************************/
//   40 
//   41 /*********************************************************************
//   42   This device will be like a Light device.  This application is not
//   43   intended to be a Light device, but will use the device description
//   44   to implement this sample code.
//   45 *********************************************************************/
//   46 
//   47 /*********************************************************************
//   48  * INCLUDES
//   49  */
//   50 #include "ZComDef.h"
//   51 #include "OSAL.h"
//   52 #include "AF.h"
//   53 #include "ZDApp.h"
//   54 #include "ZDObject.h"
//   55 
//   56 #include "zcl.h"
//   57 #include "zcl_general.h"
//   58 #include "zcl_ha.h"
//   59 
//   60 #include "zcl_samplelight.h"
//   61 
//   62 #include "onboard.h"
//   63 
//   64 /* HAL */
//   65 #include "hal_lcd.h"
//   66 #include "hal_led.h"
//   67 #include "hal_key.h"
//   68 
//   69 
//   70 /*********************************************************************
//   71  * MACROS
//   72  */
//   73 
//   74 /*********************************************************************
//   75  * CONSTANTS
//   76  */
//   77 /*********************************************************************
//   78  * TYPEDEFS
//   79  */
//   80 
//   81 /*********************************************************************
//   82  * GLOBAL VARIABLES
//   83  */

        RSEG XDATA_Z:XDATA:NOROOT(0)
        DATA8
//   84 byte zclSampleLight_TaskID;
zclSampleLight_TaskID:
        DS 1
        REQUIRE __INIT_XDATA_Z
//   85 
//   86 /*********************************************************************
//   87  * GLOBAL FUNCTIONS
//   88  */
//   89 
//   90 /*********************************************************************
//   91  * LOCAL VARIABLES
//   92  */
//   93 // Test Endpoint to allow SYS_APP_MSGs

        RSEG XDATA_I:XDATA:NOROOT(0)
//   94 static endPointDesc_t sampleLight_TestEp =
sampleLight_TestEp:
        DATA8
        DS 6
        REQUIRE `?<Initializer for sampleLight_TestEp>`
        REQUIRE __INIT_XDATA_I
//   95 {
//   96   SAMPLELIGHT_ENDPOINT,                                 // Test endpoint
//   97   &zclSampleLight_TaskID,
//   98   (SimpleDescriptionFormat_t *)&zclSampleLight_SimpleDesc,  // No Simple description for this test endpoint
//   99   (afNetworkLatencyReq_t)0            // No Network Latency req
//  100 };
//  101 
//  102 /*********************************************************************
//  103  * LOCAL FUNCTIONS
//  104  */
//  105 static void GenericApp_ProcessZDOMsgs( zdoIncomingMsg_t *inMsg );
//  106 static void zclSampleLight_HandleKeys( byte shift, byte keys );
//  107 static void zclSampleLight_BasicResetCB( void );
//  108 static void zclSampleLight_IdentifyCB( zclIdentify_t *pCmd );
//  109 static void zclSampleLight_IdentifyQueryRspCB( zclIdentifyQueryRsp_t *pRsp );
//  110 static void zclSampleLight_OnOffCB( uint8 cmd );
//  111 static void zclSampleLight_ProcessIdentifyTimeChange( void );
//  112 
//  113 // Functions to process ZCL Foundation incoming Command/Response messages 
//  114 static void zclSampleLight_ProcessIncomingMsg( zclIncomingMsg_t *msg );
//  115 #ifdef ZCL_READ
//  116 static uint8 zclSampleLight_ProcessInReadRspCmd( zclIncomingMsg_t *pInMsg );
//  117 #endif
//  118 #ifdef ZCL_WRITE
//  119 static uint8 zclSampleLight_ProcessInWriteRspCmd( zclIncomingMsg_t *pInMsg );
//  120 #endif
//  121 static uint8 zclSampleLight_ProcessInDefaultRspCmd( zclIncomingMsg_t *pInMsg );
//  122 #ifdef ZCL_DISCOVER
//  123 static uint8 zclSampleLight_ProcessInDiscRspCmd( zclIncomingMsg_t *pInMsg );
//  124 #endif
//  125 
//  126 /*********************************************************************
//  127  * ZCL General Profile Callback table
//  128  */

        RSEG XDATA_I:XDATA:NOROOT(0)
//  129 static zclGeneral_AppCallbacks_t zclSampleLight_CmdCallbacks =
zclSampleLight_CmdCallbacks:
        DATA8
        DS 30
        REQUIRE `?<Initializer for zclSampleLight_CmdCallbacks>`
        REQUIRE __INIT_XDATA_I
//  130 {
//  131   zclSampleLight_BasicResetCB,              // Basic Cluster Reset command
//  132   zclSampleLight_IdentifyCB,                // Identify command  
//  133   zclSampleLight_IdentifyQueryRspCB,        // Identify Query Response command
//  134   zclSampleLight_OnOffCB,                   // On/Off cluster command
//  135   NULL,                                     // Level Control Move to Level command
//  136   NULL,                                     // Level Control Move command
//  137   NULL,                                     // Level Control Step command
//  138   NULL,                                     // Group Response commands
//  139   NULL,                                     // Scene Store Request command
//  140   NULL,                                     // Scene Recall Request command
//  141   NULL,                                     // Scene Response command
//  142   NULL,                                     // Alarm (Response) command
//  143   NULL,                                     // RSSI Location commands
//  144   NULL,                                     // RSSI Location Response commands
//  145 };
//  146 
//  147 /*********************************************************************
//  148  * @fn          zclSampleLight_Init
//  149  *
//  150  * @brief       Initialization function for the zclGeneral layer.
//  151  *
//  152  * @param       none
//  153  *
//  154  * @return      none
//  155  */

        RSEG BANKED_CODE:CODE:NOROOT(0)
//  156 void zclSampleLight_Init( byte task_id )
zclSampleLight_Init:
        CFI Block cfiBlock0 Using cfiCommon0
        CFI Function zclSampleLight_Init
        CODE
//  157 {
        FUNCALL zclSampleLight_Init, zclHA_Init
        LOCFRAME ISTACK, 0, STACK
        LOCFRAME PSTACK, 0, STACK
        LOCFRAME XSTACK, 9, STACK
        LOCFRAME IOVERLAY, 0, STATIC
        LOCFRAME DOVERLAY, 0, STATIC
        ARGFRAME ISTACK, 0, STACK
        ARGFRAME PSTACK, 0, STACK
        ARGFRAME XSTACK, 9, STACK
        ARGFRAME IOVERLAY, 0, STATIC
        ARGFRAME DOVERLAY, 0, STATIC
        FUNCALL zclSampleLight_Init, zclGeneral_RegisterCmdCallbacks
        LOCFRAME ISTACK, 0, STACK
        LOCFRAME PSTACK, 0, STACK
        LOCFRAME XSTACK, 9, STACK
        LOCFRAME IOVERLAY, 0, STATIC
        LOCFRAME DOVERLAY, 0, STATIC
        ARGFRAME ISTACK, 0, STACK
        ARGFRAME PSTACK, 0, STACK
        ARGFRAME XSTACK, 9, STACK
        ARGFRAME IOVERLAY, 0, STATIC
        ARGFRAME DOVERLAY, 0, STATIC
        FUNCALL zclSampleLight_Init, zcl_registerAttrList
        LOCFRAME ISTACK, 0, STACK
        LOCFRAME PSTACK, 0, STACK
        LOCFRAME XSTACK, 9, STACK
        LOCFRAME IOVERLAY, 0, STATIC
        LOCFRAME DOVERLAY, 0, STATIC
        ARGFRAME ISTACK, 0, STACK
        ARGFRAME PSTACK, 0, STACK
        ARGFRAME XSTACK, 9, STACK
        ARGFRAME IOVERLAY, 0, STATIC
        ARGFRAME DOVERLAY, 0, STATIC
        FUNCALL zclSampleLight_Init, zcl_registerForMsg
        LOCFRAME ISTACK, 0, STACK
        LOCFRAME PSTACK, 0, STACK
        LOCFRAME XSTACK, 9, STACK
        LOCFRAME IOVERLAY, 0, STATIC
        LOCFRAME DOVERLAY, 0, STATIC
        ARGFRAME ISTACK, 0, STACK
        ARGFRAME PSTACK, 0, STACK
        ARGFRAME XSTACK, 9, STACK
        ARGFRAME IOVERLAY, 0, STATIC
        ARGFRAME DOVERLAY, 0, STATIC
        FUNCALL zclSampleLight_Init, RegisterForKeys
        LOCFRAME ISTACK, 0, STACK
        LOCFRAME PSTACK, 0, STACK
        LOCFRAME XSTACK, 9, STACK
        LOCFRAME IOVERLAY, 0, STATIC
        LOCFRAME DOVERLAY, 0, STATIC
        ARGFRAME ISTACK, 0, STACK
        ARGFRAME PSTACK, 0, STACK
        ARGFRAME XSTACK, 9, STACK
        ARGFRAME IOVERLAY, 0, STATIC
        ARGFRAME DOVERLAY, 0, STATIC
        FUNCALL zclSampleLight_Init, afRegister
        LOCFRAME ISTACK, 0, STACK
        LOCFRAME PSTACK, 0, STACK
        LOCFRAME XSTACK, 9, STACK
        LOCFRAME IOVERLAY, 0, STATIC
        LOCFRAME DOVERLAY, 0, STATIC
        ARGFRAME ISTACK, 0, STACK
        ARGFRAME PSTACK, 0, STACK
        ARGFRAME XSTACK, 9, STACK
        ARGFRAME IOVERLAY, 0, STATIC
        ARGFRAME DOVERLAY, 0, STATIC
        FUNCALL zclSampleLight_Init, ZDO_RegisterForZDOMsg
        LOCFRAME ISTACK, 0, STACK
        LOCFRAME PSTACK, 0, STACK
        LOCFRAME XSTACK, 9, STACK
        LOCFRAME IOVERLAY, 0, STATIC
        LOCFRAME DOVERLAY, 0, STATIC
        ARGFRAME ISTACK, 0, STACK
        ARGFRAME PSTACK, 0, STACK
        ARGFRAME XSTACK, 9, STACK
        ARGFRAME IOVERLAY, 0, STATIC
        ARGFRAME DOVERLAY, 0, STATIC
        MOV     A,#-0x9
        LCALL   ?BANKED_ENTER_XDATA
        CFI DPH0 load(1, XDATA, add(CFA_XSP16, literal(-1)))
        CFI DPL0 load(1, XDATA, add(CFA_XSP16, literal(-2)))
        CFI ?BRET_EXT load(1, XDATA, add(CFA_XSP16, literal(-3)))
        CFI ?RET_HIGH load(1, XDATA, add(CFA_XSP16, literal(-4)))
        CFI ?RET_LOW load(1, XDATA, add(CFA_XSP16, literal(-5)))
        CFI R7 load(1, XDATA, add(CFA_XSP16, literal(-6)))
        CFI V0 load(1, XDATA, add(CFA_XSP16, literal(-7)))
        CFI VB load(1, XDATA, add(CFA_XSP16, literal(-8)))
        CFI R6 load(1, XDATA, add(CFA_XSP16, literal(-9)))
        CFI CFA_SP SP+0
        CFI CFA_XSP16 add(XSP16, 9)
        ; Saved register size: 9
        ; Auto size: 0
        MOV     A,R1
        MOV     R6,A
//  158   zclSampleLight_TaskID = task_id;
        MOV     DPTR,#zclSampleLight_TaskID
        MOVX    @DPTR,A
//  159 
//  160   // This app is part of the Home Automation Profile
//  161   zclHA_Init( &zclSampleLight_SimpleDesc );
        ; Setup parameters for call to function zclHA_Init
        MOV     R2,#zclSampleLight_SimpleDesc & 0xff
        MOV     R3,#(zclSampleLight_SimpleDesc >> 8) & 0xff
        LCALL   ??zclHA_Init?relay
//  162 
//  163   // Register the ZCL General Cluster Library callback functions
//  164   zclGeneral_RegisterCmdCallbacks( SAMPLELIGHT_ENDPOINT, &zclSampleLight_CmdCallbacks );
        ; Setup parameters for call to function zclGeneral_RegisterCmdCallbacks
        MOV     R2,#zclSampleLight_CmdCallbacks & 0xff
        MOV     R3,#(zclSampleLight_CmdCallbacks >> 8) & 0xff
        MOV     R1,#0xd
        LCALL   ??zclGeneral_RegisterCmdCallbacks?relay
//  165 
//  166   // Register the application's attribute list
//  167   zcl_registerAttrList( SAMPLELIGHT_ENDPOINT, SAMPLELIGHT_MAX_ATTRIBUTES, zclSampleLight_Attrs );
        ; Setup parameters for call to function zcl_registerAttrList
        MOV     R4,#zclSampleLight_Attrs & 0xff
        MOV     R5,#(zclSampleLight_Attrs >> 8) & 0xff
        MOV     R2,#0xc
        MOV     R1,#0xd
        LCALL   ??zcl_registerAttrList?relay
//  168 
//  169   // Register the Application to receive the unprocessed Foundation command/response messages
//  170   zcl_registerForMsg( zclSampleLight_TaskID );
        ; Setup parameters for call to function zcl_registerForMsg
        MOV     DPTR,#zclSampleLight_TaskID
        MOVX    A,@DPTR
        MOV     R1,A
        LCALL   ??zcl_registerForMsg?relay
//  171   
//  172   // Register for all key events - This app will handle all key events
//  173   RegisterForKeys( zclSampleLight_TaskID );
        ; Setup parameters for call to function RegisterForKeys
        MOV     DPTR,#zclSampleLight_TaskID
        MOVX    A,@DPTR
        MOV     R1,A
        LCALL   ??RegisterForKeys?relay
//  174 
//  175   // Register for a test endpoint
//  176   afRegister( &sampleLight_TestEp );
        ; Setup parameters for call to function afRegister
        MOV     R2,#sampleLight_TestEp & 0xff
        MOV     R3,#(sampleLight_TestEp >> 8) & 0xff
        LCALL   ??afRegister?relay
//  177   
//  178   ZDO_RegisterForZDOMsg( task_id,  End_Device_Bind_rsp );
        ; Setup parameters for call to function ZDO_RegisterForZDOMsg
        MOV     R2,#0x20
        MOV     R3,#-0x80
        MOV     A,R6
        MOV     R1,A
        LCALL   ??ZDO_RegisterForZDOMsg?relay
        CFI EndBlock cfiBlock0
//  179 }
        REQUIRE ?Subroutine0
        ; // Fall through to label ?Subroutine0

        RSEG BANKED_CODE:CODE:NOROOT(0)
?Subroutine0:
        CFI Block cfiBlock1 Using cfiCommon0
        CFI NoFunction
        CFI CFA_SP SP+0
        CFI CFA_XSP16 add(XSP16, 9)
        CFI VB load(1, XDATA, add(CFA_XSP16, literal(-8)))
        CFI DPL0 load(1, XDATA, add(CFA_XSP16, literal(-2)))
        CFI DPH0 load(1, XDATA, add(CFA_XSP16, literal(-1)))
        CFI R6 load(1, XDATA, add(CFA_XSP16, literal(-9)))
        CFI R7 load(1, XDATA, add(CFA_XSP16, literal(-6)))
        CFI V0 load(1, XDATA, add(CFA_XSP16, literal(-7)))
        CFI ?BRET_EXT load(1, XDATA, add(CFA_XSP16, literal(-3)))
        CFI ?RET_HIGH load(1, XDATA, add(CFA_XSP16, literal(-4)))
        CFI ?RET_LOW load(1, XDATA, add(CFA_XSP16, literal(-5)))
        MOV     R7,#0x1
        LJMP    ?BANKED_LEAVE_XDATA
        CFI EndBlock cfiBlock1
//  180 
//  181 /*********************************************************************
//  182  * @fn          zclSample_event_loop
//  183  *
//  184  * @brief       Event Loop Processor for zclGeneral.
//  185  *
//  186  * @param       none
//  187  *
//  188  * @return      none
//  189  */

        RSEG BANKED_CODE:CODE:NOROOT(0)
//  190 uint16 zclSampleLight_event_loop( uint8 task_id, uint16 events )
zclSampleLight_event_loop:
        CFI Block cfiBlock2 Using cfiCommon0
        CFI Function zclSampleLight_event_loop
        CODE
//  191 {
        FUNCALL zclSampleLight_event_loop, NLME_GetShortAddr
        LOCFRAME ISTACK, 0, STACK
        LOCFRAME PSTACK, 0, STACK
        LOCFRAME XSTACK, 21, STACK
        LOCFRAME IOVERLAY, 0, STATIC
        LOCFRAME DOVERLAY, 0, STATIC
        ARGFRAME ISTACK, 0, STACK
        ARGFRAME PSTACK, 0, STACK
        ARGFRAME XSTACK, 21, STACK
        ARGFRAME IOVERLAY, 0, STATIC
        ARGFRAME DOVERLAY, 0, STATIC
        FUNCALL zclSampleLight_event_loop, ZDP_EndDeviceBindReq
        LOCFRAME ISTACK, 0, STACK
        LOCFRAME PSTACK, 0, STACK
        LOCFRAME XSTACK, 30, STACK
        LOCFRAME IOVERLAY, 0, STATIC
        LOCFRAME DOVERLAY, 0, STATIC
        ARGFRAME ISTACK, 0, STACK
        ARGFRAME PSTACK, 0, STACK
        ARGFRAME XSTACK, 30, STACK
        ARGFRAME IOVERLAY, 0, STATIC
        ARGFRAME DOVERLAY, 0, STATIC
        FUNCALL zclSampleLight_event_loop, osal_msg_deallocate
        LOCFRAME ISTACK, 0, STACK
        LOCFRAME PSTACK, 0, STACK
        LOCFRAME XSTACK, 21, STACK
        LOCFRAME IOVERLAY, 0, STATIC
        LOCFRAME DOVERLAY, 0, STATIC
        ARGFRAME ISTACK, 0, STACK
        ARGFRAME PSTACK, 0, STACK
        ARGFRAME XSTACK, 21, STACK
        ARGFRAME IOVERLAY, 0, STATIC
        ARGFRAME DOVERLAY, 0, STATIC
        FUNCALL zclSampleLight_event_loop, osal_msg_receive
        LOCFRAME ISTACK, 0, STACK
        LOCFRAME PSTACK, 0, STACK
        LOCFRAME XSTACK, 21, STACK
        LOCFRAME IOVERLAY, 0, STATIC
        LOCFRAME DOVERLAY, 0, STATIC
        ARGFRAME ISTACK, 0, STACK
        ARGFRAME PSTACK, 0, STACK
        ARGFRAME XSTACK, 21, STACK
        ARGFRAME IOVERLAY, 0, STATIC
        ARGFRAME DOVERLAY, 0, STATIC
        FUNCALL zclSampleLight_event_loop, HalLedSet
        LOCFRAME ISTACK, 0, STACK
        LOCFRAME PSTACK, 0, STACK
        LOCFRAME XSTACK, 21, STACK
        LOCFRAME IOVERLAY, 0, STATIC
        LOCFRAME DOVERLAY, 0, STATIC
        ARGFRAME ISTACK, 0, STACK
        ARGFRAME PSTACK, 0, STACK
        ARGFRAME XSTACK, 21, STACK
        ARGFRAME IOVERLAY, 0, STATIC
        ARGFRAME DOVERLAY, 0, STATIC
        FUNCALL zclSampleLight_event_loop, osal_mem_free
        LOCFRAME ISTACK, 0, STACK
        LOCFRAME PSTACK, 0, STACK
        LOCFRAME XSTACK, 21, STACK
        LOCFRAME IOVERLAY, 0, STATIC
        LOCFRAME DOVERLAY, 0, STATIC
        ARGFRAME ISTACK, 0, STACK
        ARGFRAME PSTACK, 0, STACK
        ARGFRAME XSTACK, 21, STACK
        ARGFRAME IOVERLAY, 0, STATIC
        ARGFRAME DOVERLAY, 0, STATIC
        MOV     A,#-0xc
        LCALL   ?BANKED_ENTER_XDATA
        CFI DPH0 load(1, XDATA, add(CFA_XSP16, literal(-1)))
        CFI DPL0 load(1, XDATA, add(CFA_XSP16, literal(-2)))
        CFI ?BRET_EXT load(1, XDATA, add(CFA_XSP16, literal(-3)))
        CFI ?RET_HIGH load(1, XDATA, add(CFA_XSP16, literal(-4)))
        CFI ?RET_LOW load(1, XDATA, add(CFA_XSP16, literal(-5)))
        CFI R7 load(1, XDATA, add(CFA_XSP16, literal(-6)))
        CFI V3 load(1, XDATA, add(CFA_XSP16, literal(-7)))
        CFI V2 load(1, XDATA, add(CFA_XSP16, literal(-8)))
        CFI V1 load(1, XDATA, add(CFA_XSP16, literal(-9)))
        CFI V0 load(1, XDATA, add(CFA_XSP16, literal(-10)))
        CFI VB load(1, XDATA, add(CFA_XSP16, literal(-11)))
        CFI R6 load(1, XDATA, add(CFA_XSP16, literal(-12)))
        CFI CFA_SP SP+0
        CFI CFA_XSP16 add(XSP16, 12)
        ; Saved register size: 12
        ; Auto size: 9
        MOV     A,#-0x9
        LCALL   ?ALLOC_XSTACK8
        CFI CFA_XSP16 add(XSP16, 21)
        MOV     ?V0 + 0,R2
        MOV     ?V0 + 1,R3
//  192   afIncomingMSGPacket_t *MSGpkt;
//  193   
//  194   (void)task_id;  // Intentionally unreferenced parameter
//  195 
//  196   if ( events & SYS_EVENT_MSG )
        MOV     A,R3
        ANL     A,#0x80
        JZ      $+5
        LJMP    ??zclSampleLight_event_loop_0 & 0xFFFF
//  197   {
//  198     while ( (MSGpkt = (afIncomingMSGPacket_t *)osal_msg_receive( zclSampleLight_TaskID )) )
//  199     {
//  200       switch ( MSGpkt->hdr.event )
//  201       {
//  202        case ZDO_CB_MSG:
//  203           GenericApp_ProcessZDOMsgs( (zdoIncomingMsg_t *)MSGpkt );
//  204           break;
//  205           
//  206        case ZCL_INCOMING_MSG:
//  207           // Incoming ZCL Foundation command/response messages
//  208           zclSampleLight_ProcessIncomingMsg( (zclIncomingMsg_t *)MSGpkt );
//  209           break;
//  210           
//  211         case KEY_CHANGE:
//  212           zclSampleLight_HandleKeys( ((keyChange_t *)MSGpkt)->state, ((keyChange_t *)MSGpkt)->keys );
//  213           break;
//  214 
//  215         default:
//  216           break;
//  217       }
//  218 
//  219       // Release the memory
//  220       osal_msg_deallocate( (uint8 *)MSGpkt );
//  221     }
//  222 
//  223     // return unprocessed events
//  224     return (events ^ SYS_EVENT_MSG);
//  225   }
//  226 
//  227   // Discard unknown events
//  228   return 0;
        MOV     R2,#0x0
        MOV     R3,#0x0
??zclSampleLight_event_loop_1:
        MOV     A,#0x9
        LCALL   ?DEALLOC_XSTACK8
        CFI CFA_XSP16 add(XSP16, 12)
        MOV     R7,#0x4
        LJMP    ?BANKED_LEAVE_XDATA
        CFI CFA_XSP16 add(XSP16, 21)
??zclSampleLight_event_loop_2:
        INC     DPTR
        INC     DPTR
        INC     DPTR
        MOVX    A,@DPTR
        MOV     C,0xE0 /* A   */.1
        JNC     ??zclSampleLight_event_loop_3
        MOV     A,#0x8
        LCALL   ?XSTACK_DISP0_8
        MOV     A,#0x2
        MOVX    @DPTR,A
        MOV     DPL,?XSP + 0
        MOV     DPH,?XSP + 1
        CLR     A
        MOVX    @DPTR,A
        INC     DPTR
        MOVX    @DPTR,A
        ; Setup parameters for call to function NLME_GetShortAddr
        LCALL   ??NLME_GetShortAddr?relay
        MOV     ?V0 + 2,R2
        MOV     ?V0 + 3,R3
        MOV     R4,?V0 + 2
        MOV     R5,?V0 + 3
        ; Setup parameters for call to function ZDP_EndDeviceBindReq
        MOV     ?V0 + 2,#0x1
        MOV     R0,#?V0 + 2
        LCALL   ?PUSH_XSTACK_I_ONE
        CFI CFA_XSP16 add(XSP16, 22)
        CLR     A
        MOV     ?V0 + 2,A
        MOV     ?V0 + 3,A
        MOV     R0,#?V0 + 2
        LCALL   ?PUSH_XSTACK_I_TWO
        CFI CFA_XSP16 add(XSP16, 24)
        MOV     R0,#?V0 + 2
        LCALL   ?PUSH_XSTACK_I_ONE
        CFI CFA_XSP16 add(XSP16, 25)
        MOV     DPTR,#zclSampleLight_SimpleDesc + 7
        LCALL   ?PUSH_XSTACK8_X_TWO
        CFI CFA_XSP16 add(XSP16, 27)
        MOV     DPTR,#zclSampleLight_SimpleDesc + 6
        MOVX    A,@DPTR
        MOV     ?V0 + 2,A
        MOV     R0,#?V0 + 2
        LCALL   ?PUSH_XSTACK_I_ONE
        CFI CFA_XSP16 add(XSP16, 28)
        MOV     ?V0 + 2,#0x4
        MOV     ?V0 + 3,#0x1
        MOV     R0,#?V0 + 2
        LCALL   ?PUSH_XSTACK_I_TWO
        CFI CFA_XSP16 add(XSP16, 30)
        MOV     R1,#0xd
        MOV     A,#0x9
        LCALL   ?XSTACK_DISP0_8
        MOV     R2,DPL
        MOV     R3,DPH
        LCALL   ??ZDP_EndDeviceBindReq?relay
        MOV     A,#0x9
        LCALL   ?DEALLOC_XSTACK8
        CFI CFA_XSP16 add(XSP16, 21)
??zclSampleLight_event_loop_3:
        ; Setup parameters for call to function osal_msg_deallocate
        MOV     A,R6
        MOV     R2,A
        MOV     A,R7
        MOV     R3,A
        LCALL   ??osal_msg_deallocate?relay
??zclSampleLight_event_loop_0:
        ; Setup parameters for call to function osal_msg_receive
        MOV     DPTR,#zclSampleLight_TaskID
        MOVX    A,@DPTR
        MOV     R1,A
        LCALL   ??osal_msg_receive?relay
        MOV     ?V0 + 2,R2
        MOV     ?V0 + 3,R3
        MOV     R6,?V0 + 2
        MOV     R7,?V0 + 3
        MOV     A,R6
        ORL     A,R7
        JNZ     $+5
        LJMP    ??zclSampleLight_event_loop_4 & 0xFFFF
        MOV     DPL,R6
        MOV     DPH,R7
        MOVX    A,@DPTR
        ADD     A,#-0x34
        JZ      ??zclSampleLight_event_loop_5
        ADD     A,#0x74
        JNZ     $+5
        LJMP    ??zclSampleLight_event_loop_2 & 0xFFFF
        ADD     A,#-0x13
        JNZ     ??zclSampleLight_event_loop_3
        MOV     A,R6
        ADD     A,#0xc
        MOV     DPL,A
        MOV     A,R7
        ADDC    A,#0x0
        MOV     DPH,A
        MOVX    A,@DPTR
        XRL     A,#0x20
        JNZ     ??zclSampleLight_event_loop_6
        INC     DPTR
        MOVX    A,@DPTR
        XRL     A,#0x80
??zclSampleLight_event_loop_6:
        JNZ     ??zclSampleLight_event_loop_3
        MOV     A,R6
        ADD     A,#0x13
        MOV     DPL,A
        MOV     A,R7
        ADDC    A,#0x0
        MOV     DPH,A
        MOVX    A,@DPTR
        MOV     R0,A
        INC     DPTR
        MOVX    A,@DPTR
        MOV     DPH,A
        MOV     DPL,R0
        MOVX    A,@DPTR
        JNZ     ??zclSampleLight_event_loop_3
        ; Setup parameters for call to function HalLedSet
        MOV     R2,#0x8
        MOV     R1,#0x2
        LCALL   ??HalLedSet?relay
        SJMP    ??zclSampleLight_event_loop_3
??zclSampleLight_event_loop_5:
        INC     DPTR
        INC     DPTR
        INC     DPTR
        INC     DPTR
        INC     DPTR
        INC     DPTR
        INC     DPTR
        MOVX    A,@DPTR
        DEC     A
        JZ      ??zclSampleLight_event_loop_7
        ADD     A,#-0x3
        JNZ     ??zclSampleLight_event_loop_8
        LCALL   ?Subroutine1 & 0xFFFF
??CrossCallReturnLabel_0:
        MOVX    A,@DPTR
        MOV     R0,A
        MOV     A,R1
        CLR     C
        SUBB    A,R0
        JNC     ??zclSampleLight_event_loop_8
        INC     R1
        SJMP    ??CrossCallReturnLabel_0
??zclSampleLight_event_loop_7:
        LCALL   ?Subroutine1 & 0xFFFF
??CrossCallReturnLabel_1:
        SJMP    ??zclSampleLight_event_loop_9
??zclSampleLight_event_loop_10:
        INC     R1
??zclSampleLight_event_loop_9:
        MOVX    A,@DPTR
        MOV     R0,A
        MOV     A,R1
        CLR     C
        SUBB    A,R0
        JC      ??zclSampleLight_event_loop_10
??zclSampleLight_event_loop_8:
        LCALL   ?Subroutine2 & 0xFFFF
??CrossCallReturnLabel_2:
        MOV     R0,A
        INC     DPTR
        MOVX    A,@DPTR
        MOV     R1,A
        MOV     A,R0
        ORL     A,R1
        JNZ     $+5
        LJMP    ??zclSampleLight_event_loop_3 & 0xFFFF
        ; Setup parameters for call to function osal_mem_free
        LCALL   ?Subroutine2 & 0xFFFF
??CrossCallReturnLabel_3:
        MOV     R2,A
        INC     DPTR
        MOVX    A,@DPTR
        MOV     R3,A
        LCALL   ??osal_mem_free?relay
        LJMP    ??zclSampleLight_event_loop_3 & 0xFFFF
??zclSampleLight_event_loop_4:
        MOV     R2,?V0 + 0
        MOV     A,?V0 + 1
        XRL     A,#0x80
        MOV     R3,A
        LJMP    ??zclSampleLight_event_loop_1 & 0xFFFF
        CFI EndBlock cfiBlock2
//  229 }

        RSEG BANKED_CODE:CODE:NOROOT(0)
?Subroutine2:
        CFI Block cfiCond3 Using cfiCommon0
        CFI NoFunction
        CFI Conditional ??CrossCallReturnLabel_2
        CFI R6 load(1, XDATA, add(CFA_XSP16, literal(-12)))
        CFI VB load(1, XDATA, add(CFA_XSP16, literal(-11)))
        CFI V0 load(1, XDATA, add(CFA_XSP16, literal(-10)))
        CFI V1 load(1, XDATA, add(CFA_XSP16, literal(-9)))
        CFI V2 load(1, XDATA, add(CFA_XSP16, literal(-8)))
        CFI V3 load(1, XDATA, add(CFA_XSP16, literal(-7)))
        CFI R7 load(1, XDATA, add(CFA_XSP16, literal(-6)))
        CFI ?RET_LOW load(1, XDATA, add(CFA_XSP16, literal(-5)))
        CFI ?RET_HIGH load(1, XDATA, add(CFA_XSP16, literal(-4)))
        CFI ?BRET_EXT load(1, XDATA, add(CFA_XSP16, literal(-3)))
        CFI DPL0 load(1, XDATA, add(CFA_XSP16, literal(-2)))
        CFI DPH0 load(1, XDATA, add(CFA_XSP16, literal(-1)))
        CFI CFA_SP SP+0
        CFI CFA_XSP16 add(XSP16, 21)
        CFI Block cfiCond4 Using cfiCommon0
        CFI (cfiCond4) NoFunction
        CFI (cfiCond4) Conditional ??CrossCallReturnLabel_3
        CFI (cfiCond4) R6 load(1, XDATA, add(CFA_XSP16, literal(-12)))
        CFI (cfiCond4) VB load(1, XDATA, add(CFA_XSP16, literal(-11)))
        CFI (cfiCond4) V0 load(1, XDATA, add(CFA_XSP16, literal(-10)))
        CFI (cfiCond4) V1 load(1, XDATA, add(CFA_XSP16, literal(-9)))
        CFI (cfiCond4) V2 load(1, XDATA, add(CFA_XSP16, literal(-8)))
        CFI (cfiCond4) V3 load(1, XDATA, add(CFA_XSP16, literal(-7)))
        CFI (cfiCond4) R7 load(1, XDATA, add(CFA_XSP16, literal(-6)))
        CFI (cfiCond4) ?RET_LOW load(1, XDATA, add(CFA_XSP16, literal(-5)))
        CFI (cfiCond4) ?RET_HIGH load(1, XDATA, add(CFA_XSP16, literal(-4)))
        CFI (cfiCond4) ?BRET_EXT load(1, XDATA, add(CFA_XSP16, literal(-3)))
        CFI (cfiCond4) DPL0 load(1, XDATA, add(CFA_XSP16, literal(-2)))
        CFI (cfiCond4) DPH0 load(1, XDATA, add(CFA_XSP16, literal(-1)))
        CFI (cfiCond4) CFA_SP SP+0
        CFI (cfiCond4) CFA_XSP16 add(XSP16, 21)
        CFI Block cfiPicker5 Using cfiCommon1
        CFI (cfiPicker5) NoFunction
        CFI (cfiPicker5) Picker
        LCALL   ?Subroutine3 & 0xFFFF
??CrossCallReturnLabel_5:
        RET
        CFI EndBlock cfiCond3
        CFI EndBlock cfiCond4
        CFI EndBlock cfiPicker5

        RSEG BANKED_CODE:CODE:NOROOT(0)
?Subroutine3:
        CFI Block cfiCond6 Using cfiCommon0
        CFI NoFunction
        CFI Conditional ??CrossCallReturnLabel_5, ??CrossCallReturnLabel_2
        CFI R6 load(1, XDATA, add(CFA_XSP16, literal(-12)))
        CFI VB load(1, XDATA, add(CFA_XSP16, literal(-11)))
        CFI V0 load(1, XDATA, add(CFA_XSP16, literal(-10)))
        CFI V1 load(1, XDATA, add(CFA_XSP16, literal(-9)))
        CFI V2 load(1, XDATA, add(CFA_XSP16, literal(-8)))
        CFI V3 load(1, XDATA, add(CFA_XSP16, literal(-7)))
        CFI R7 load(1, XDATA, add(CFA_XSP16, literal(-6)))
        CFI ?RET_LOW load(1, XDATA, add(CFA_XSP16, literal(-5)))
        CFI ?RET_HIGH load(1, XDATA, add(CFA_XSP16, literal(-4)))
        CFI ?BRET_EXT load(1, XDATA, add(CFA_XSP16, literal(-3)))
        CFI DPL0 load(1, XDATA, add(CFA_XSP16, literal(-2)))
        CFI DPH0 load(1, XDATA, add(CFA_XSP16, literal(-1)))
        CFI CFA_SP SP+0
        CFI CFA_XSP16 add(XSP16, 21)
        CFI Block cfiCond7 Using cfiCommon0
        CFI (cfiCond7) NoFunction
        CFI (cfiCond7) Conditional ??CrossCallReturnLabel_5, ??CrossCallReturnLabel_3
        CFI (cfiCond7) R6 load(1, XDATA, add(CFA_XSP16, literal(-12)))
        CFI (cfiCond7) VB load(1, XDATA, add(CFA_XSP16, literal(-11)))
        CFI (cfiCond7) V0 load(1, XDATA, add(CFA_XSP16, literal(-10)))
        CFI (cfiCond7) V1 load(1, XDATA, add(CFA_XSP16, literal(-9)))
        CFI (cfiCond7) V2 load(1, XDATA, add(CFA_XSP16, literal(-8)))
        CFI (cfiCond7) V3 load(1, XDATA, add(CFA_XSP16, literal(-7)))
        CFI (cfiCond7) R7 load(1, XDATA, add(CFA_XSP16, literal(-6)))
        CFI (cfiCond7) ?RET_LOW load(1, XDATA, add(CFA_XSP16, literal(-5)))
        CFI (cfiCond7) ?RET_HIGH load(1, XDATA, add(CFA_XSP16, literal(-4)))
        CFI (cfiCond7) ?BRET_EXT load(1, XDATA, add(CFA_XSP16, literal(-3)))
        CFI (cfiCond7) DPL0 load(1, XDATA, add(CFA_XSP16, literal(-2)))
        CFI (cfiCond7) DPH0 load(1, XDATA, add(CFA_XSP16, literal(-1)))
        CFI (cfiCond7) CFA_SP SP+0
        CFI (cfiCond7) CFA_XSP16 add(XSP16, 21)
        CFI Block cfiCond8 Using cfiCommon0
        CFI (cfiCond8) NoFunction
        CFI (cfiCond8) Conditional ??CrossCallReturnLabel_4, ??CrossCallReturnLabel_0
        CFI (cfiCond8) R6 load(1, XDATA, add(CFA_XSP16, literal(-12)))
        CFI (cfiCond8) VB load(1, XDATA, add(CFA_XSP16, literal(-11)))
        CFI (cfiCond8) V0 load(1, XDATA, add(CFA_XSP16, literal(-10)))
        CFI (cfiCond8) V1 load(1, XDATA, add(CFA_XSP16, literal(-9)))
        CFI (cfiCond8) V2 load(1, XDATA, add(CFA_XSP16, literal(-8)))
        CFI (cfiCond8) V3 load(1, XDATA, add(CFA_XSP16, literal(-7)))
        CFI (cfiCond8) R7 load(1, XDATA, add(CFA_XSP16, literal(-6)))
        CFI (cfiCond8) ?RET_LOW load(1, XDATA, add(CFA_XSP16, literal(-5)))
        CFI (cfiCond8) ?RET_HIGH load(1, XDATA, add(CFA_XSP16, literal(-4)))
        CFI (cfiCond8) ?BRET_EXT load(1, XDATA, add(CFA_XSP16, literal(-3)))
        CFI (cfiCond8) DPL0 load(1, XDATA, add(CFA_XSP16, literal(-2)))
        CFI (cfiCond8) DPH0 load(1, XDATA, add(CFA_XSP16, literal(-1)))
        CFI (cfiCond8) CFA_SP SP+0
        CFI (cfiCond8) CFA_XSP16 add(XSP16, 21)
        CFI Block cfiCond9 Using cfiCommon0
        CFI (cfiCond9) NoFunction
        CFI (cfiCond9) Conditional ??CrossCallReturnLabel_4, ??CrossCallReturnLabel_1
        CFI (cfiCond9) R6 load(1, XDATA, add(CFA_XSP16, literal(-12)))
        CFI (cfiCond9) VB load(1, XDATA, add(CFA_XSP16, literal(-11)))
        CFI (cfiCond9) V0 load(1, XDATA, add(CFA_XSP16, literal(-10)))
        CFI (cfiCond9) V1 load(1, XDATA, add(CFA_XSP16, literal(-9)))
        CFI (cfiCond9) V2 load(1, XDATA, add(CFA_XSP16, literal(-8)))
        CFI (cfiCond9) V3 load(1, XDATA, add(CFA_XSP16, literal(-7)))
        CFI (cfiCond9) R7 load(1, XDATA, add(CFA_XSP16, literal(-6)))
        CFI (cfiCond9) ?RET_LOW load(1, XDATA, add(CFA_XSP16, literal(-5)))
        CFI (cfiCond9) ?RET_HIGH load(1, XDATA, add(CFA_XSP16, literal(-4)))
        CFI (cfiCond9) ?BRET_EXT load(1, XDATA, add(CFA_XSP16, literal(-3)))
        CFI (cfiCond9) DPL0 load(1, XDATA, add(CFA_XSP16, literal(-2)))
        CFI (cfiCond9) DPH0 load(1, XDATA, add(CFA_XSP16, literal(-1)))
        CFI (cfiCond9) CFA_SP SP+0
        CFI (cfiCond9) CFA_XSP16 add(XSP16, 21)
        CFI Block cfiPicker10 Using cfiCommon1
        CFI (cfiPicker10) NoFunction
        CFI (cfiPicker10) Picker
        MOV     A,R6
        ADD     A,#0x17
        MOV     DPL,A
        MOV     A,R7
        ADDC    A,#0x0
        MOV     DPH,A
        MOVX    A,@DPTR
        RET
        CFI EndBlock cfiCond6
        CFI EndBlock cfiCond7
        CFI EndBlock cfiCond8
        CFI EndBlock cfiCond9
        CFI EndBlock cfiPicker10

        RSEG BANKED_CODE:CODE:NOROOT(0)
?Subroutine1:
        CFI Block cfiCond11 Using cfiCommon0
        CFI NoFunction
        CFI Conditional ??CrossCallReturnLabel_0
        CFI R6 load(1, XDATA, add(CFA_XSP16, literal(-12)))
        CFI VB load(1, XDATA, add(CFA_XSP16, literal(-11)))
        CFI V0 load(1, XDATA, add(CFA_XSP16, literal(-10)))
        CFI V1 load(1, XDATA, add(CFA_XSP16, literal(-9)))
        CFI V2 load(1, XDATA, add(CFA_XSP16, literal(-8)))
        CFI V3 load(1, XDATA, add(CFA_XSP16, literal(-7)))
        CFI R7 load(1, XDATA, add(CFA_XSP16, literal(-6)))
        CFI ?RET_LOW load(1, XDATA, add(CFA_XSP16, literal(-5)))
        CFI ?RET_HIGH load(1, XDATA, add(CFA_XSP16, literal(-4)))
        CFI ?BRET_EXT load(1, XDATA, add(CFA_XSP16, literal(-3)))
        CFI DPL0 load(1, XDATA, add(CFA_XSP16, literal(-2)))
        CFI DPH0 load(1, XDATA, add(CFA_XSP16, literal(-1)))
        CFI CFA_SP SP+0
        CFI CFA_XSP16 add(XSP16, 21)
        CFI Block cfiCond12 Using cfiCommon0
        CFI (cfiCond12) NoFunction
        CFI (cfiCond12) Conditional ??CrossCallReturnLabel_1
        CFI (cfiCond12) R6 load(1, XDATA, add(CFA_XSP16, literal(-12)))
        CFI (cfiCond12) VB load(1, XDATA, add(CFA_XSP16, literal(-11)))
        CFI (cfiCond12) V0 load(1, XDATA, add(CFA_XSP16, literal(-10)))
        CFI (cfiCond12) V1 load(1, XDATA, add(CFA_XSP16, literal(-9)))
        CFI (cfiCond12) V2 load(1, XDATA, add(CFA_XSP16, literal(-8)))
        CFI (cfiCond12) V3 load(1, XDATA, add(CFA_XSP16, literal(-7)))
        CFI (cfiCond12) R7 load(1, XDATA, add(CFA_XSP16, literal(-6)))
        CFI (cfiCond12) ?RET_LOW load(1, XDATA, add(CFA_XSP16, literal(-5)))
        CFI (cfiCond12) ?RET_HIGH load(1, XDATA, add(CFA_XSP16, literal(-4)))
        CFI (cfiCond12) ?BRET_EXT load(1, XDATA, add(CFA_XSP16, literal(-3)))
        CFI (cfiCond12) DPL0 load(1, XDATA, add(CFA_XSP16, literal(-2)))
        CFI (cfiCond12) DPH0 load(1, XDATA, add(CFA_XSP16, literal(-1)))
        CFI (cfiCond12) CFA_SP SP+0
        CFI (cfiCond12) CFA_XSP16 add(XSP16, 21)
        CFI Block cfiPicker13 Using cfiCommon1
        CFI (cfiPicker13) NoFunction
        CFI (cfiPicker13) Picker
        LCALL   ?Subroutine3 & 0xFFFF
??CrossCallReturnLabel_4:
        MOV     R0,A
        INC     DPTR
        MOVX    A,@DPTR
        MOV     R1,A
        MOV     DPL,R0
        MOV     DPH,R1
        MOV     R1,#0x0
        RET
        CFI EndBlock cfiCond11
        CFI EndBlock cfiCond12
        CFI EndBlock cfiPicker13
//  230 
//  231 
//  232 static void GenericApp_ProcessZDOMsgs( zdoIncomingMsg_t *inMsg )
//  233 {
//  234   switch ( inMsg->clusterID )
//  235   {
//  236     case End_Device_Bind_rsp:
//  237       if ( ZDO_ParseBindRsp( inMsg ) == ZSuccess )
//  238       {
//  239          HalLedSet ( HAL_LED_2, HAL_LED_MODE_TOGGLE );
//  240       }
//  241       break;
//  242       
//  243    default:
//  244     break;
//  245   }
//  246 }
//  247 /*********************************************************************
//  248  * @fn      zclSampleLight_HandleKeys
//  249  *
//  250  * @brief   Handles all key events for this device.
//  251  *
//  252  * @param   shift - true if in shift/alt.
//  253  * @param   keys - bit field for key events. Valid entries:
//  254  *                 HAL_KEY_SW_4
//  255  *                 HAL_KEY_SW_3
//  256  *                 HAL_KEY_SW_2
//  257  *                 HAL_KEY_SW_1
//  258  *
//  259  * @return  none
//  260  */
//  261 static void zclSampleLight_HandleKeys( byte shift, byte keys )
//  262 {
//  263   zAddrType_t dstAddr;
//  264   
//  265   (void)shift;  // Intentionally unreferenced parameter
//  266 
//  267   if ( keys & HAL_KEY_SW_2 )
//  268   {
//  269     // Initiate an End Device Bind Request, this bind request will
//  270     // only use a cluster list that is important to binding.
//  271     dstAddr.addrMode = afAddr16Bit;
//  272     dstAddr.addr.shortAddr = 0;   // Coordinator makes the match
//  273     ZDP_EndDeviceBindReq( &dstAddr, NLME_GetShortAddr(),
//  274                            SAMPLELIGHT_ENDPOINT,
//  275                            ZCL_HA_PROFILE_ID,
//  276                            zclSampleLight_SimpleDesc.AppNumInClusters, 
//  277                            zclSampleLight_SimpleDesc.pAppInClusterList,
//  278                            0, NULL,   // No Outgoing clusters to bind
//  279                            TRUE );
//  280   }
//  281 }
//  282 
//  283 /*********************************************************************
//  284  * @fn      zclSampleLight_ProcessIdentifyTimeChange
//  285  *
//  286  * @brief   Called to process any change to the IdentifyTime attribute.
//  287  *
//  288  * @param   none
//  289  *
//  290  * @return  none
//  291  */
//  292 static void zclSampleLight_ProcessIdentifyTimeChange( void )
//  293 {
//  294   if ( zclSampleLight_IdentifyTime > 0 )
//  295   {
//  296    // osal_start_timerEx( zclSampleLight_TaskID, SAMPLELIGHT_IDENTIFY_TIMEOUT_EVT, 1000 );
//  297     HalLedBlink ( HAL_LED_4, 0xFF, HAL_LED_DEFAULT_DUTY_CYCLE, HAL_LED_DEFAULT_FLASH_TIME );
//  298   }
//  299   else
//  300   {
//  301     if ( zclSampleLight_OnOff )
//  302       HalLedSet ( HAL_LED_4, HAL_LED_MODE_ON );
//  303     else
//  304       HalLedSet ( HAL_LED_4, HAL_LED_MODE_OFF );
//  305    // osal_stop_timerEx( zclSampleLight_TaskID, SAMPLELIGHT_IDENTIFY_TIMEOUT_EVT );
//  306   }
//  307 }
//  308 
//  309 /*********************************************************************
//  310  * @fn      zclSampleLight_BasicResetCB
//  311  *
//  312  * @brief   Callback from the ZCL General Cluster Library
//  313  *          to set all the Basic Cluster attributes to default values.
//  314  *
//  315  * @param   none
//  316  *
//  317  * @return  none
//  318  */

        RSEG BANKED_CODE:CODE:NOROOT(0)
//  319 static void zclSampleLight_BasicResetCB( void )
zclSampleLight_BasicResetCB:
        CFI Block cfiBlock14 Using cfiCommon0
        CFI Function zclSampleLight_BasicResetCB
        CODE
//  320 {
        ; Saved register size: 0
        ; Auto size: 0
//  321   // Reset all attributes to default values
//  322 }
        LJMP    ?BRET
        CFI EndBlock cfiBlock14
//  323 
//  324 /*********************************************************************
//  325  * @fn      zclSampleLight_IdentifyCB
//  326  *
//  327  * @brief   Callback from the ZCL General Cluster Library when
//  328  *          it received an Identity Command for this application.
//  329  *
//  330  * @param   srcAddr - source address and endpoint of the response message
//  331  * @param   identifyTime - the number of seconds to identify yourself
//  332  *
//  333  * @return  none
//  334  */

        RSEG BANKED_CODE:CODE:NOROOT(0)
//  335 static void zclSampleLight_IdentifyCB( zclIdentify_t *pCmd )
zclSampleLight_IdentifyCB:
        CFI Block cfiBlock15 Using cfiCommon0
        CFI Function zclSampleLight_IdentifyCB
        CODE
//  336 {
        FUNCALL zclSampleLight_IdentifyCB, HalLedBlink
        LOCFRAME ISTACK, 2, STACK
        LOCFRAME PSTACK, 0, STACK
        LOCFRAME XSTACK, 0, STACK
        LOCFRAME IOVERLAY, 0, STATIC
        LOCFRAME DOVERLAY, 0, STATIC
        ARGFRAME ISTACK, 2, STACK
        ARGFRAME PSTACK, 0, STACK
        ARGFRAME XSTACK, 0, STACK
        ARGFRAME IOVERLAY, 0, STATIC
        ARGFRAME DOVERLAY, 0, STATIC
        FUNCALL zclSampleLight_IdentifyCB, HalLedSet
        LOCFRAME ISTACK, 2, STACK
        LOCFRAME PSTACK, 0, STACK
        LOCFRAME XSTACK, 0, STACK
        LOCFRAME IOVERLAY, 0, STATIC
        LOCFRAME DOVERLAY, 0, STATIC
        ARGFRAME ISTACK, 2, STACK
        ARGFRAME PSTACK, 0, STACK
        ARGFRAME XSTACK, 0, STACK
        ARGFRAME IOVERLAY, 0, STATIC
        ARGFRAME DOVERLAY, 0, STATIC
        FUNCALL zclSampleLight_IdentifyCB, HalLedSet
        LOCFRAME ISTACK, 2, STACK
        LOCFRAME PSTACK, 0, STACK
        LOCFRAME XSTACK, 0, STACK
        LOCFRAME IOVERLAY, 0, STATIC
        LOCFRAME DOVERLAY, 0, STATIC
        ARGFRAME ISTACK, 2, STACK
        ARGFRAME PSTACK, 0, STACK
        ARGFRAME XSTACK, 0, STACK
        ARGFRAME IOVERLAY, 0, STATIC
        ARGFRAME DOVERLAY, 0, STATIC
        PUSH    DPL
        CFI DPL0 Frame(CFA_SP, 4)
        CFI CFA_SP SP+-4
        PUSH    DPH
        CFI DPH0 Frame(CFA_SP, 5)
        CFI CFA_SP SP+-5
        ; Saved register size: 2
        ; Auto size: 0
//  337   zclSampleLight_IdentifyTime = pCmd->identifyTime;
        MOV     DPL,R2
        MOV     DPH,R3
        INC     DPTR
        INC     DPTR
        MOVX    A,@DPTR
        MOV     R0,A
        INC     DPTR
        MOVX    A,@DPTR
        MOV     R1,A
        MOV     DPTR,#zclSampleLight_IdentifyTime
        MOV     A,R0
        MOVX    @DPTR,A
        INC     DPTR
        MOV     A,R1
        MOVX    @DPTR,A
//  338   zclSampleLight_ProcessIdentifyTimeChange();
        MOV     A,R0
        ORL     A,R1
        JZ      ??zclSampleLight_IdentifyCB_0
        ; Setup parameters for call to function HalLedBlink
        MOV     R4,#-0x18
        MOV     R5,#0x3
        MOV     R3,#0x5
        MOV     R2,#-0x1
        MOV     R1,#0x8
        LCALL   ??HalLedBlink?relay
        SJMP    ??zclSampleLight_IdentifyCB_1
??zclSampleLight_IdentifyCB_0:
        MOV     DPTR,#zclSampleLight_OnOff
        MOVX    A,@DPTR
        JZ      ??zclSampleLight_IdentifyCB_2
        ; Setup parameters for call to function HalLedSet
        MOV     R2,#0x1
        SJMP    ??zclSampleLight_IdentifyCB_3
??zclSampleLight_IdentifyCB_2:
        ; Setup parameters for call to function HalLedSet
        MOV     R2,#0x0
??zclSampleLight_IdentifyCB_3:
        MOV     R1,#0x8
        LCALL   ??HalLedSet?relay
//  339 }
??zclSampleLight_IdentifyCB_1:
        POP     DPH
        CFI DPH0 SameValue
        CFI CFA_SP SP+-4
        POP     DPL
        CFI DPL0 SameValue
        CFI CFA_SP SP+-3
        LJMP    ?BRET
        CFI EndBlock cfiBlock15
//  340 
//  341 /*********************************************************************
//  342  * @fn      zclSampleLight_IdentifyQueryRspCB
//  343  *
//  344  * @brief   Callback from the ZCL General Cluster Library when
//  345  *          it received an Identity Query Response Command for this application.
//  346  *
//  347  * @param   srcAddr - requestor's address
//  348  * @param   timeout - number of seconds to identify yourself (valid for query response)
//  349  *
//  350  * @return  none
//  351  */

        RSEG BANKED_CODE:CODE:NOROOT(0)
//  352 static void zclSampleLight_IdentifyQueryRspCB(  zclIdentifyQueryRsp_t *pRsp )
zclSampleLight_IdentifyQueryRspCB:
        CFI Block cfiBlock16 Using cfiCommon0
        CFI Function zclSampleLight_IdentifyQueryRspCB
        CODE
//  353 {
        ; Saved register size: 0
        ; Auto size: 0
//  354   // Query Response (with timeout value)
//  355   (void)pRsp;
//  356 }
        LJMP    ?BRET
        CFI EndBlock cfiBlock16
//  357 
//  358 /*********************************************************************
//  359  * @fn      zclSampleLight_OnOffCB
//  360  *
//  361  * @brief   Callback from the ZCL General Cluster Library when
//  362  *          it received an On/Off Command for this application.
//  363  *
//  364  * @param   cmd - COMMAND_ON, COMMAND_OFF or COMMAND_TOGGLE
//  365  *
//  366  * @return  none
//  367  */

        RSEG BANKED_CODE:CODE:NOROOT(0)
//  368 static void zclSampleLight_OnOffCB( uint8 cmd )
zclSampleLight_OnOffCB:
        CFI Block cfiBlock17 Using cfiCommon0
        CFI Function zclSampleLight_OnOffCB
        CODE
//  369 {
        FUNCALL zclSampleLight_OnOffCB, HalLedSet
        LOCFRAME ISTACK, 0, STACK
        LOCFRAME PSTACK, 0, STACK
        LOCFRAME XSTACK, 9, STACK
        LOCFRAME IOVERLAY, 0, STATIC
        LOCFRAME DOVERLAY, 0, STATIC
        ARGFRAME ISTACK, 0, STACK
        ARGFRAME PSTACK, 0, STACK
        ARGFRAME XSTACK, 9, STACK
        ARGFRAME IOVERLAY, 0, STATIC
        ARGFRAME DOVERLAY, 0, STATIC
        FUNCALL zclSampleLight_OnOffCB, HalLedSet
        LOCFRAME ISTACK, 0, STACK
        LOCFRAME PSTACK, 0, STACK
        LOCFRAME XSTACK, 9, STACK
        LOCFRAME IOVERLAY, 0, STATIC
        LOCFRAME DOVERLAY, 0, STATIC
        ARGFRAME ISTACK, 0, STACK
        ARGFRAME PSTACK, 0, STACK
        ARGFRAME XSTACK, 9, STACK
        ARGFRAME IOVERLAY, 0, STATIC
        ARGFRAME DOVERLAY, 0, STATIC
        MOV     A,#-0x9
        LCALL   ?BANKED_ENTER_XDATA
        CFI DPH0 load(1, XDATA, add(CFA_XSP16, literal(-1)))
        CFI DPL0 load(1, XDATA, add(CFA_XSP16, literal(-2)))
        CFI ?BRET_EXT load(1, XDATA, add(CFA_XSP16, literal(-3)))
        CFI ?RET_HIGH load(1, XDATA, add(CFA_XSP16, literal(-4)))
        CFI ?RET_LOW load(1, XDATA, add(CFA_XSP16, literal(-5)))
        CFI R7 load(1, XDATA, add(CFA_XSP16, literal(-6)))
        CFI V0 load(1, XDATA, add(CFA_XSP16, literal(-7)))
        CFI VB load(1, XDATA, add(CFA_XSP16, literal(-8)))
        CFI R6 load(1, XDATA, add(CFA_XSP16, literal(-9)))
        CFI CFA_SP SP+0
        CFI CFA_XSP16 add(XSP16, 9)
        ; Saved register size: 9
        ; Auto size: 0
        MOV     A,R1
        MOV     R6,A
//  370   // Turn on the light
//  371   if ( cmd == COMMAND_ON )
        MOV     A,#0x1
        XRL     A,R6
        JNZ     ??zclSampleLight_OnOffCB_0
//  372     zclSampleLight_OnOff = LIGHT_ON;
??zclSampleLight_OnOffCB_1:
        MOV     DPTR,#zclSampleLight_OnOff
        MOV     A,#0x1
        MOVX    @DPTR,A
//  373 
//  374   // Turn off the light
//  375   else if ( cmd == COMMAND_OFF )
//  376     zclSampleLight_OnOff = LIGHT_OFF;
//  377 
//  378   // Toggle the light
//  379   else
//  380   {
//  381     if ( zclSampleLight_OnOff == LIGHT_OFF )
//  382       zclSampleLight_OnOff = LIGHT_ON;
//  383     else
//  384       zclSampleLight_OnOff = LIGHT_OFF;
//  385   }
//  386 
//  387   // In this sample app, we use LED4 to simulate the Light
//  388   if ( zclSampleLight_OnOff == LIGHT_ON )
//  389     HalLedSet( HAL_LED_1, HAL_LED_MODE_ON );//ÊÕµ½onoffÃüÁîºóLED1Ö¸Ê¾
        ; Setup parameters for call to function HalLedSet
        MOV     R2,A
        MOV     R1,A
??zclSampleLight_OnOffCB_2:
        LCALL   ??HalLedSet?relay
//  390   else
//  391     HalLedSet( HAL_LED_1, HAL_LED_MODE_OFF );
//  392 }
        LJMP    ?Subroutine0 & 0xFFFF
??zclSampleLight_OnOffCB_0:
        MOV     A,R6
        JNZ     ??zclSampleLight_OnOffCB_3
??zclSampleLight_OnOffCB_4:
        MOV     DPTR,#zclSampleLight_OnOff
        CLR     A
        MOVX    @DPTR,A
        ; Setup parameters for call to function HalLedSet
        MOV     R2,A
        MOV     R1,#0x1
        SJMP    ??zclSampleLight_OnOffCB_2
??zclSampleLight_OnOffCB_3:
        MOV     DPTR,#zclSampleLight_OnOff
        MOVX    A,@DPTR
        JNZ     ??zclSampleLight_OnOffCB_4
        SJMP    ??zclSampleLight_OnOffCB_1
        CFI EndBlock cfiBlock17

        RSEG XDATA_ID:CODE:NOROOT(0)
`?<Initializer for sampleLight_TestEp>`:
        DATA8
        DB 13
        DATA16
        DW zclSampleLight_TaskID
        DW zclSampleLight_SimpleDesc
        DATA8
        DB 0

        RSEG XDATA_ID:CODE:NOROOT(0)
`?<Initializer for zclSampleLight_CmdCallbacks>`:
        DATA16
        DW ??zclSampleLight_BasicResetCB?relay
        DW ??zclSampleLight_IdentifyCB?relay
        DW ??zclSampleLight_IdentifyQueryRspCB?relay
        DW ??zclSampleLight_OnOffCB?relay
        DW 0H
        DW 0H
        DW 0H
        DW 0H
        DW 0H
        DW 0H
        DW 0H
        DW 0H
        DW 0H
        DW 0H
        DB 0, 0

        RSEG BANK_RELAYS:CODE:REORDER:NOROOT(0)
??zclSampleLight_Init?relay:
        LCALL   ?BDISPATCH
        DATA
        DC24    zclSampleLight_Init

        RSEG BANK_RELAYS:CODE:REORDER:NOROOT(0)
??zclSampleLight_event_loop?relay:
        LCALL   ?BDISPATCH
        DATA
        DC24    zclSampleLight_event_loop

        RSEG BANK_RELAYS:CODE:REORDER:NOROOT(0)
??zclSampleLight_BasicResetCB?relay:
        LCALL   ?BDISPATCH
        DATA
        DC24    zclSampleLight_BasicResetCB

        RSEG BANK_RELAYS:CODE:REORDER:NOROOT(0)
??zclSampleLight_IdentifyCB?relay:
        LCALL   ?BDISPATCH
        DATA
        DC24    zclSampleLight_IdentifyCB

        RSEG BANK_RELAYS:CODE:REORDER:NOROOT(0)
??zclSampleLight_IdentifyQueryRspCB?relay:
        LCALL   ?BDISPATCH
        DATA
        DC24    zclSampleLight_IdentifyQueryRspCB

        RSEG BANK_RELAYS:CODE:REORDER:NOROOT(0)
??zclSampleLight_OnOffCB?relay:
        LCALL   ?BDISPATCH
        DATA
        DC24    zclSampleLight_OnOffCB

        END
//  393 
//  394 
//  395 /****************************************************************************** 
//  396  * 
//  397  *  Functions for processing ZCL Foundation incoming Command/Response messages
//  398  *
//  399  *****************************************************************************/
//  400 
//  401 /*********************************************************************
//  402  * @fn      zclSampleLight_ProcessIncomingMsg
//  403  *
//  404  * @brief   Process ZCL Foundation incoming message
//  405  *
//  406  * @param   pInMsg - pointer to the received message
//  407  *
//  408  * @return  none
//  409  */
//  410 static void zclSampleLight_ProcessIncomingMsg( zclIncomingMsg_t *pInMsg)
//  411 {
//  412   switch ( pInMsg->zclHdr.commandID )
//  413   {
//  414 #ifdef ZCL_READ
//  415     case ZCL_CMD_READ_RSP:
//  416       zclSampleLight_ProcessInReadRspCmd( pInMsg );
//  417       break;
//  418 #endif
//  419 #ifdef ZCL_WRITE    
//  420     case ZCL_CMD_WRITE_RSP:
//  421       zclSampleLight_ProcessInWriteRspCmd( pInMsg );
//  422       break;
//  423 #endif
//  424 #ifdef ZCL_REPORT
//  425     // See ZCL Test Applicaiton (zcl_testapp.c) for sample code on Attribute Reporting
//  426     case ZCL_CMD_CONFIG_REPORT:
//  427       //zclSampleLight_ProcessInConfigReportCmd( pInMsg );
//  428       break;
//  429     
//  430     case ZCL_CMD_CONFIG_REPORT_RSP:
//  431       //zclSampleLight_ProcessInConfigReportRspCmd( pInMsg );
//  432       break;
//  433     
//  434     case ZCL_CMD_READ_REPORT_CFG:
//  435       //zclSampleLight_ProcessInReadReportCfgCmd( pInMsg );
//  436       break;
//  437     
//  438     case ZCL_CMD_READ_REPORT_CFG_RSP:
//  439       //zclSampleLight_ProcessInReadReportCfgRspCmd( pInMsg );
//  440       break;
//  441     
//  442     case ZCL_CMD_REPORT:
//  443       //zclSampleLight_ProcessInReportCmd( pInMsg );
//  444       break;
//  445 #endif   
//  446     case ZCL_CMD_DEFAULT_RSP:
//  447       zclSampleLight_ProcessInDefaultRspCmd( pInMsg );
//  448       break;
//  449 #ifdef ZCL_DISCOVER     
//  450     case ZCL_CMD_DISCOVER_RSP:
//  451       zclSampleLight_ProcessInDiscRspCmd( pInMsg );
//  452       break;
//  453 #endif  
//  454     default:
//  455       break;
//  456   }
//  457   
//  458   if ( pInMsg->attrCmd )
//  459     osal_mem_free( pInMsg->attrCmd );
//  460 }
//  461 
//  462 #ifdef ZCL_READ
//  463 /*********************************************************************
//  464  * @fn      zclSampleLight_ProcessInReadRspCmd
//  465  *
//  466  * @brief   Process the "Profile" Read Response Command
//  467  *
//  468  * @param   pInMsg - incoming message to process
//  469  *
//  470  * @return  none
//  471  */
//  472 static uint8 zclSampleLight_ProcessInReadRspCmd( zclIncomingMsg_t *pInMsg )
//  473 {
//  474   zclReadRspCmd_t *readRspCmd;
//  475   uint8 i;
//  476 
//  477   readRspCmd = (zclReadRspCmd_t *)pInMsg->attrCmd;
//  478   for (i = 0; i < readRspCmd->numAttr; i++)
//  479   {
//  480     // Notify the originator of the results of the original read attributes 
//  481     // attempt and, for each successfull request, the value of the requested 
//  482     // attribute
//  483   }
//  484 
//  485   return TRUE; 
//  486 }
//  487 #endif // ZCL_READ
//  488 
//  489 #ifdef ZCL_WRITE
//  490 /*********************************************************************
//  491  * @fn      zclSampleLight_ProcessInWriteRspCmd
//  492  *
//  493  * @brief   Process the "Profile" Write Response Command
//  494  *
//  495  * @param   pInMsg - incoming message to process
//  496  *
//  497  * @return  none
//  498  */
//  499 static uint8 zclSampleLight_ProcessInWriteRspCmd( zclIncomingMsg_t *pInMsg )
//  500 {
//  501   zclWriteRspCmd_t *writeRspCmd;
//  502   uint8 i;
//  503 
//  504   writeRspCmd = (zclWriteRspCmd_t *)pInMsg->attrCmd;
//  505   for (i = 0; i < writeRspCmd->numAttr; i++)
//  506   {
//  507     // Notify the device of the results of the its original write attributes
//  508     // command.
//  509   }
//  510 
//  511   return TRUE; 
//  512 }
//  513 #endif // ZCL_WRITE
//  514 
//  515 /*********************************************************************
//  516  * @fn      zclSampleLight_ProcessInDefaultRspCmd
//  517  *
//  518  * @brief   Process the "Profile" Default Response Command
//  519  *
//  520  * @param   pInMsg - incoming message to process
//  521  *
//  522  * @return  none
//  523  */
//  524 static uint8 zclSampleLight_ProcessInDefaultRspCmd( zclIncomingMsg_t *pInMsg )
//  525 {
//  526   // zclDefaultRspCmd_t *defaultRspCmd = (zclDefaultRspCmd_t *)pInMsg->attrCmd;
//  527    
//  528   // Device is notified of the Default Response command.
//  529   (void)pInMsg;
//  530  // HalLedSet ( HAL_LED_1, HAL_LED_MODE_TROGGLE );
//  531   
//  532   return TRUE; 
//  533 }
//  534 
//  535 #ifdef ZCL_DISCOVER
//  536 /*********************************************************************
//  537  * @fn      zclSampleLight_ProcessInDiscRspCmd
//  538  *
//  539  * @brief   Process the "Profile" Discover Response Command
//  540  *
//  541  * @param   pInMsg - incoming message to process
//  542  *
//  543  * @return  none
//  544  */
//  545 static uint8 zclSampleLight_ProcessInDiscRspCmd( zclIncomingMsg_t *pInMsg )
//  546 {
//  547   zclDiscoverRspCmd_t *discoverRspCmd;
//  548   uint8 i;
//  549   
//  550   discoverRspCmd = (zclDiscoverRspCmd_t *)pInMsg->attrCmd;
//  551   for ( i = 0; i < discoverRspCmd->numAttr; i++ )
//  552   {
//  553     // Device is notified of the result of its attribute discovery command.
//  554   }
//  555   
//  556   return TRUE;
//  557 }
//  558 #endif // ZCL_DISCOVER
//  559 
//  560 
//  561 /****************************************************************************
//  562 ****************************************************************************/
//  563 
//  564 
// 
// 546 bytes in segment BANKED_CODE
//  36 bytes in segment BANK_RELAYS
//  36 bytes in segment XDATA_I
//  36 bytes in segment XDATA_ID
//   1 byte  in segment XDATA_Z
// 
// 618 bytes of CODE  memory
//  37 bytes of XDATA memory
//
//Errors: none
//Warnings: none
